0:abort
1:enlargeMemory
2:getTotalMemory
3:abortOnCannotGrowMemory
4:invoke_i
5:invoke_ii
6:invoke_v
7:invoke_vii
8:invoke_viii
9:_XXH32
10:__Z11RequireTypePKcS0_S0_
11:__Z12FormatBufferPciPKcPi
12:__Z12FormatBufferPciPKcz
13:__Z12GetGfxDevicev
14:__Z12GetIVRDevicev
15:__Z12OptionalTypePKcS0_S0_
16:__Z13GetIXRPreInitv
17:__Z13RequireMethodPKcS0_S0_S0_
18:__Z13SetIXRDisplayP10IXRDisplay
19:__Z13SetIXRPreInitP10IXRPreInit
20:__Z14GetTimeManagerv
21:__Z14IsWorldPlayingv
22:__Z15malloc_internalmm10MemLabelId15AllocateOptionsPKci
23:__Z15printf_consolev7LogTypePKcPib
24:__Z16BytesToHexStringPKvmPc
25:__Z16GetBuildSettingsv
26:__Z16realloc_internalPvmm10MemLabelId15AllocateOptionsPKci
27:__Z17DebugStringToFileRK21DebugStringToFileData
28:__Z17GetPlayerSettingsv
29:__Z18GetInputManagerPtrv
30:__Z18GetUnityInterfacesv
31:__Z18LoadPluginFunctionPvPKc
32:__Z19GetTimeSinceStartupv
33:__Z19JoystickButtonToKeyii
34:__Z19free_alloc_internalPv10MemLabelIdPKci
35:__Z19scripting_array_new17ScriptingClassPtrmm
36:__Z20CalculateSqrDistanceRK8Vector3fRK4AABB
37:__Z20FindPluginExecutablePKc
38:__Z20LoadPluginExecutablePKcb
39:__Z21ClearFenceWithoutSyncR8JobFence
40:__Z21CompleteFenceInternalR8JobFence13WorkStealMode
41:__Z22ConnectVirtualJoystickPKc
42:__Z22CreateMutexLockedQueue10MemLabelId
43:__Z22CreateMutexLockedStackv
44:__Z23DestroyMutexLockedQueueP16MutexLockedQueue10MemLabelId
45:__Z23DestroyMutexLockedStackP16MutexLockedStack
46:__Z26scripting_field_get_offset17ScriptingFieldPtr
47:__Z27ExecuteJobWithSharedJobDataP14ExecuteJobDatajjPvS1_bib
48:__Z27SetupModuleScriptingClassesPFvvES0_
49:__Z28SetIXRWindowsLocatableCameraP25IXRWindowsLocatableCamera
50:__Z32SetVirtualJoystickConnectedStatePKcb
51:__Z35scripting_class_get_field_from_name17ScriptingClassPtrPKc
52:__Z38GetScriptingManagedObjectProxyRegistryv
53:__Z38scripting_class_get_system_type_object17ScriptingClassPtr
54:__Z6FormatPKcz
55:__Z8GetIWindv
56:__Z8SetIWindP5IWind
57:__Z9GetIAudiov
58:__ZN10BootConfig15GetGlobalConfigEv
59:__ZN10Matrix4x4fC1EPKf
60:__ZN10MemoryPool24RegisterStaticMemoryPoolEPS_
61:__ZN10MemoryPoolC1E10MemLabelIdbPKciii
62:__ZN10MemoryPoolD1Ev
63:__ZN12InputManager11SetKeyStateEib
64:__ZN12InputManager12ProcessInputEv
65:__ZN12InputManager19SetJoystickPositionEiif
66:__ZN12UnityClassic16Baselib_TLS_FreeEm
67:__ZN12UnityClassic17Baselib_TLS_AllocEv
68:__ZN14ConstantStringD1Ev
69:__ZN15GlobalCallbacks3GetEv
70:__ZN16ThreadedJobBatch8JobBatchD1Ev
71:__ZN17MessageIdentifierC1EPKcNS_7OptionsEPKN5Unity4TypeES1_
72:__ZN17RuntimeStaticBase14InitializeImplEmPFPvS0_10MemLabelIdE
73:__ZN17RuntimeStaticBase5SetupEPKcS1_i
74:__ZN17ScriptingGCHandle13AcquireStrongE18ScriptingObjectPtr
75:__ZN17ScriptingGCHandle15ReleaseAndClearEv
76:__ZN17ScriptingGCHandle28ResolveBackendNativeGCHandleEj
77:__ZN17ScriptingGCHandle7AcquireE18ScriptingObjectPtr25ScriptingGCHandleWeakness
78:__ZN18ScriptingArguments10AddBooleanEb
79:__ZN18ScriptingArguments7AddEnumEi
80:__ZN18ScriptingArguments9AddStructEPKv
81:__ZN19ScriptingInvocation6InvokeEP21ScriptingExceptionPtrb
82:__ZN19ScriptingInvocation6InvokeIvEET_P21ScriptingExceptionPtrb
83:__ZN19ScriptingInvocationC1E18ScriptingMethodPtr
84:__ZN19ScriptingInvocationC1E18ScriptingObjectPtrPKc
85:__ZN19ShaderPropertySheet11ComputeHashEv
86:__ZN19ShaderPropertySheet20ReservePropertyCountEm
87:__ZN19ShaderPropertySheet5ClearEb
88:__ZN19ShaderPropertySheet8SetFloatEN9ShaderLab16FastPropertyNameEfNS_8SetFlagsE
89:__ZN19ShaderPropertySheet9SetVectorEN9ShaderLab16FastPropertyNameERK8Vector4fNS_8SetFlagsE
90:__ZN19ShaderPropertySheetD1Ev
91:__ZN20dynamic_array_detail18dynamic_array_data13resize_bufferEm12ResizePolicymm
92:__ZN20dynamic_array_detail18dynamic_array_data4growEmm
93:__ZN20dynamic_array_detail18dynamic_array_data4swapERS0_
94:__ZN20dynamic_array_detail18dynamic_array_data7reserveEmmm
95:__ZN35RegisterRuntimeInitializeAndCleanupC1EPFvPvES2_iS0_
96:__ZN35ScriptingManagedObjectProxyRegistry13RegisterProxyEPKcPFvvES3_
97:__ZN43MultiWriterSingleReaderAtomicCircularBuffer15ReadNextPayloadEPhi
98:__ZN43MultiWriterSingleReaderAtomicCircularBuffer19ReserveSpaceForDataEi
99:__ZN43MultiWriterSingleReaderAtomicCircularBuffer31CopyDataAndMakeAvailableForReadEP26AtomicCircularBufferHandlePhii
100:__ZN43MultiWriterSingleReaderAtomicCircularBufferC1Ei
101:__ZN43MultiWriterSingleReaderAtomicCircularBufferD1Ev
102:__ZN5Mutex4LockEv
103:__ZN5Mutex6UnlockEv
104:__ZN5MutexC1Ev
105:__ZN5MutexD1Ev
106:__ZN9GfxDevice15EndGraphicsJobsE30GfxDeviceGraphicsJobsSyncPoint
107:__ZN9Scripting12LogExceptionE21ScriptingExceptionPtriPKcb
108:__ZN9Scripting18IsScriptingEnabledEv
109:__ZN9ShaderLab16FastPropertyName4InitEPKc
110:__ZN9profiling6MarkerC1EtPKcNS0_5FlagsE
111:__ZN9shadertag14GetShaderTagIDEPKci
112:__ZNK10BootConfig4Data6HasKeyEPKc
113:__ZNK10BootConfig4Data8GetValueEPKcm
114:__ZNK10GameObject20QueryComponentByTypeEPKN5Unity4TypeE
115:__ZNK9Transform11GetPositionEv
116:__ZNK9Transform18TransformDirectionERK8Vector3f
117:__Znwm10MemLabelIdmPKci
118:___buildEnvironment
119:___cxa_allocate_exception
120:___cxa_begin_catch
121:___cxa_end_catch
122:___cxa_find_matching_catch_2
123:___cxa_find_matching_catch_3
124:___cxa_free_exception
125:___cxa_pure_virtual
126:___cxa_rethrow
127:___cxa_throw
128:___lock
129:___resumeException
130:___setErrNo
131:___syscall140
132:___syscall146
133:___syscall54
134:___syscall6
135:___unlock
136:_abort
137:_emscripten_get_now
138:_emscripten_memcpy_big
139:_llvm_trap
140:_localtime
141:_printf_console
142:_pthread_getspecific
143:_pthread_key_create
144:_pthread_once
145:_pthread_setspecific
146:_time
147:legalimport$__ZN18ScriptingArguments8AddInt64Ex
148:legalimport$__ZN18ScriptingArguments9AddUInt64Ey
149:__growWasmMemory
150:stackAlloc
151:stackSave
152:stackRestore
153:establishStackSpace
154:setThrew
155:setTempRet0
156:getTempRet0
157:__GLOBAL__sub_I_AIScriptingClasses_cpp
158:___cxx_global_var_init
159:__ZN9Scripting11UnityEngine2AIL48__ManagedRegistrationHelperFunction_NavMeshProxyEPv
160:__ZN9Scripting11UnityEngine2AIL59__ManagedRegistrationHelperFunction_NavMeshBuildSourceProxyEPv
161:__ZN9Scripting11UnityEngine2AIL61__ManagedRegistrationHelperFunction_NavMeshTriangulationProxyEPv
162:__ZN9Scripting11UnityEngine2AI25NavMeshTriangulationProxy9InitProxyEv
163:__ZN9Scripting11UnityEngine2AI25NavMeshTriangulationProxy12CleanupProxyEv
164:__ZN9Scripting11UnityEngine2AI23NavMeshBuildSourceProxy9InitProxyEv
165:__ZN9Scripting11UnityEngine2AI23NavMeshBuildSourceProxy12CleanupProxyEv
166:__ZN9Scripting11UnityEngine2AI12NavMeshProxy9InitProxyEv
167:__ZN9Scripting11UnityEngine2AI12NavMeshProxy12CleanupProxyEv
168:__ZNSt3__213__tree_removeIPNS_16__tree_node_baseIPvEEEEvT_S5_
169:__ZN13dynamic_arrayIiLm0EED2Ev
170:__ZN4core20StringStorageDefaultIcE10deallocateEv
171:__ZN4core20StringStorageDefaultIcE6assignERKS1_
172:__ZN4core20StringStorageDefaultIcE8allocateEm
173:__ZN4core20StringStorageDefaultIcE10reallocateEm
174:__ZN13dynamic_arrayIN4core12basic_stringIcNS0_20StringStorageDefaultIcEEEELm0EED2Ev
175:__GLOBAL__sub_I_AccessibilityScriptingClasses_cpp
176:__ZN9Scripting11UnityEngine13AccessibilityL54__ManagedRegistrationHelperFunction_VisionUtilityProxyEPv
177:__ZN9Scripting11UnityEngine13Accessibility18VisionUtilityProxy9InitProxyEv
178:__ZN9Scripting11UnityEngine13Accessibility18VisionUtilityProxy12CleanupProxyEv
179:__GLOBAL__sub_I_AndroidJNIScriptingClasses_cpp
180:__ZN9Scripting11UnityEngineL58__ManagedRegistrationHelperFunction__AndroidJNIHelperProxyEPv
181:__ZN9Scripting11UnityEngineL57__ManagedRegistrationHelperFunction_AndroidJNIHelperProxyEPv
182:__ZN9Scripting11UnityEngine21AndroidJNIHelperProxy9InitProxyEv
183:__ZN9Scripting11UnityEngine21AndroidJNIHelperProxy12CleanupProxyEv
184:__ZN9Scripting11UnityEngine22_AndroidJNIHelperProxy9InitProxyEv
185:__ZN9Scripting11UnityEngine22_AndroidJNIHelperProxy12CleanupProxyEv
186:__GLOBAL__sub_I_AssetBundleScriptingClasses_cpp
187:__GLOBAL__sub_I_Modules_AssetBundle_Public_0_cpp
188:__ZN13RuntimeStaticI18AssetBundleManagerLb1EE16StaticInitializeEPv
189:__ZN13RuntimeStaticI18AssetBundleManagerLb1EE13StaticDestroyEPv
190:__ZN18AssetBundleManagerD2Ev
191:__ZN24StaticInitializeInternal13ConstructTypeI18AssetBundleManagerLb1EEEPvS2_10MemLabelId
192:__ZN9Scripting11UnityEngineL65__ManagedRegistrationHelperFunction_AssetBundleCreateRequestProxyEPv
193:__ZN9Scripting11UnityEngineL71__ManagedRegistrationHelperFunction_AssetBundleRecompressOperationProxyEPv
194:__ZN9Scripting11UnityEngineL59__ManagedRegistrationHelperFunction_AssetBundleRequestProxyEPv
195:__ZN9Scripting11UnityEngineL57__ManagedRegistrationHelperFunction_BuildCompressionProxyEPv
196:__ZN9Scripting11UnityEngine21BuildCompressionProxy9InitProxyEv
197:__ZN9Scripting11UnityEngine21BuildCompressionProxy12CleanupProxyEv
198:__ZN9Scripting11UnityEngine23AssetBundleRequestProxy9InitProxyEv
199:__ZN9Scripting11UnityEngine23AssetBundleRequestProxy12CleanupProxyEv
200:__ZN9Scripting11UnityEngine35AssetBundleRecompressOperationProxy9InitProxyEv
201:__ZN9Scripting11UnityEngine35AssetBundleRecompressOperationProxy12CleanupProxyEv
202:__ZN9Scripting11UnityEngine29AssetBundleCreateRequestProxy9InitProxyEv
203:__ZN9Scripting11UnityEngine29AssetBundleCreateRequestProxy12CleanupProxyEv
204:__Z7ToLowerIN4core12basic_stringIcNS0_20StringStorageDefaultIcEEEEET_RKS5_
205:__ZN4core8hash_setINS_4pairIKiiLb0EEENS_9hash_pairINS_4hashIiEES2_iEENS_10equal_pairINSt3__28equal_toIiEES2_iEEE6resizeEi
206:__GLOBAL__sub_I_AudioScriptingClasses_cpp
207:__GLOBAL__sub_I_Runtime_Video_0_cpp
208:__GLOBAL__sub_I_Modules_Audio_Public_0_cpp
209:__GLOBAL__sub_I_Modules_Audio_Public_1_cpp
210:__GLOBAL__sub_I_Modules_Audio_Public_2_cpp
211:__GLOBAL__sub_I_Modules_Audio_Public_3_cpp
212:__GLOBAL__sub_I_Modules_Audio_Public_ScriptBindings_1_cpp
213:__GLOBAL__sub_I_Modules_Audio_Public_sound_0_cpp
214:__ZN13RuntimeStaticIN13SoundReleaser17SoundReleaserHookELb0EE16StaticInitializeEPv
215:__ZN13RuntimeStaticIN13SoundReleaser17SoundReleaserHookELb0EE13StaticDestroyEPv
216:__ZN13RuntimeStaticINSt3__28multimapIjP12SoundDecoderNS0_4lessIjEE13stl_allocatorINS0_4pairIKjS3_EEL18MemLabelIdentifier31ELi16EEEELb0EE13StaticDestroyEPv
217:__ZNSt3__26__treeINS_12__value_typeIjP12SoundDecoderEENS_19__map_value_compareIjS4_NS_4lessIjEELb1EEE13stl_allocatorIS4_L18MemLabelIdentifier31ELi16EEE7destroyEPNS_11__tree_nodeIS4_PvEE
218:__ZN24StaticInitializeInternal13ConstructTypeIN13SoundReleaser17SoundReleaserHookELb0EEEPvS3_10MemLabelId
219:__ZN12AudioManager12PlatformHook25OnAfterFMODOutputSelectedEPS_
220:__ZN13SoundReleaser17SoundReleaserHook11OnCloseFMODEv
221:__ZN12AudioManager12PlatformHookD2Ev
222:__ZN13SoundReleaser17SoundReleaserHookD0Ev
223:__ZN13RuntimeStaticINSt3__23mapIjP26AudioSampleProviderChannelNS0_4lessIjEE13stl_allocatorINS0_4pairIKjS3_EEL18MemLabelIdentifier31ELi16EEEELb0EE13StaticDestroyEPv
224:__ZNSt3__26__treeINS_12__value_typeIjP26AudioSampleProviderChannelEENS_19__map_value_compareIjS4_NS_4lessIjEELb1EEE13stl_allocatorIS4_L18MemLabelIdentifier31ELi16EEE7destroyEPNS_11__tree_nodeIS4_PvEE
225:__ZL37StaticInitializeAudioCustomFilterRootPv
226:__ZL34StaticDestroyAudioCustomFilterRootPv
227:__ZN13RuntimeStaticI13dynamic_arrayIPN12AudioManager15ManagerListenerELm0EELb0EE16StaticInitializeEPv
228:__ZN13RuntimeStaticI13dynamic_arrayIPN12AudioManager15ManagerListenerELm0EELb0EE13StaticDestroyEPv
229:__ZN13RuntimeStaticINSt3__23mapIjP19AudioSampleProviderNS0_4lessIjEE13stl_allocatorINS0_4pairIKjS3_EEL18MemLabelIdentifier31ELi16EEEELb0EE13StaticDestroyEPv
230:__ZL37StaticInitializeAudioSourceFilterRootPv
231:__ZL34StaticDestroyAudioSourceFilterRootPv
232:__ZNSt3__26__treeINS_12__value_typeIjP19AudioSampleProviderEENS_19__map_value_compareIjS4_NS_4lessIjEELb1EEE13stl_allocatorIS4_L18MemLabelIdentifier31ELi16EEE7destroyEPNS_11__tree_nodeIS4_PvEE
233:__ZN24StaticInitializeInternal13ConstructTypeI13dynamic_arrayIPN12AudioManager15ManagerListenerELm0EELb0EEEPvS6_10MemLabelId
234:__ZN13RuntimeStaticINSt3__23setIP26AudioSampleProviderChannelNS0_4lessIS3_EE13stl_allocatorIS3_L18MemLabelIdentifier31ELi16EEEELb0EE16StaticInitializeEPv
235:__ZN13RuntimeStaticINSt3__23setIP26AudioSampleProviderChannelNS0_4lessIS3_EE13stl_allocatorIS3_L18MemLabelIdentifier31ELi16EEEELb0EE13StaticDestroyEPv
236:__ZNSt3__26__treeIP26AudioSampleProviderChannelNS_4lessIS2_EE13stl_allocatorIS2_L18MemLabelIdentifier31ELi16EEE7destroyEPNS_11__tree_nodeIS2_PvEE
237:__ZN24StaticInitializeInternal13ConstructTypeINSt3__23setIP26AudioSampleProviderChannelNS1_4lessIS4_EE13stl_allocatorIS4_L18MemLabelIdentifier31ELi16EEEELb0EEEPvSB_10MemLabelId
238:__ZN13RuntimeStaticINSt3__26vectorIP16BaseVideoTexture13stl_allocatorIS3_L18MemLabelIdentifier24ELi16EEEELb0EE16StaticInitializeEPv
239:__ZN13RuntimeStaticINSt3__26vectorIP16BaseVideoTexture13stl_allocatorIS3_L18MemLabelIdentifier24ELi16EEEELb0EE13StaticDestroyEPv
240:__ZN13RuntimeStaticINSt3__26vectorI12WebCamDeviceNS0_9allocatorIS2_EEEELb0EE16StaticInitializeEPv
241:__ZN13RuntimeStaticINSt3__26vectorI12WebCamDeviceNS0_9allocatorIS2_EEEELb0EE13StaticDestroyEPv
242:__ZN24StaticInitializeInternal13ConstructTypeINSt3__26vectorI12WebCamDeviceNS1_9allocatorIS3_EEEELb0EEEPvS7_10MemLabelId
243:__ZN9Scripting11UnityEngine5AudioL58__ManagedRegistrationHelperFunction_AudioClipPlayableProxyEPv
244:__ZN9Scripting11UnityEngine5AudioL59__ManagedRegistrationHelperFunction_AudioMixerPlayableProxyEPv
245:__ZN9Scripting11UnityEngine5AudioL60__ManagedRegistrationHelperFunction_AudioPlayableOutputProxyEPv
246:__ZN9Scripting11UnityEngineL50__ManagedRegistrationHelperFunction_AudioClipProxyEPv
247:__ZN9Scripting11UnityEngineL54__ManagedRegistrationHelperFunction_AudioSettingsProxyEPv
248:__ZN9Scripting11UnityEngine12Experimental5AudioL60__ManagedRegistrationHelperFunction_AudioSampleProviderProxyEPv
249:__ZN9Scripting11UnityEngineL53__ManagedRegistrationHelperFunction_WebCamDeviceProxyEPv
250:__ZN9Scripting11UnityEngine17WebCamDeviceProxy9InitProxyEv
251:__ZN9Scripting11UnityEngine17WebCamDeviceProxy12CleanupProxyEv
252:__ZN9Scripting11UnityEngine12Experimental5Audio24AudioSampleProviderProxy9InitProxyEv
253:__ZN9Scripting11UnityEngine12Experimental5Audio24AudioSampleProviderProxy12CleanupProxyEv
254:__ZN9Scripting11UnityEngine18AudioSettingsProxy9InitProxyEv
255:__ZN9Scripting11UnityEngine18AudioSettingsProxy12CleanupProxyEv
256:__ZN9Scripting11UnityEngine14AudioClipProxy9InitProxyEv
257:__ZN9Scripting11UnityEngine14AudioClipProxy12CleanupProxyEv
258:__ZN9Scripting11UnityEngine5Audio24AudioPlayableOutputProxy9InitProxyEv
259:__ZN9Scripting11UnityEngine5Audio24AudioPlayableOutputProxy12CleanupProxyEv
260:__ZN9Scripting11UnityEngine5Audio23AudioMixerPlayableProxy9InitProxyEv
261:__ZN9Scripting11UnityEngine5Audio23AudioMixerPlayableProxy12CleanupProxyEv
262:__ZN9Scripting11UnityEngine5Audio22AudioClipPlayableProxy9InitProxyEv
263:__ZN9Scripting11UnityEngine5Audio22AudioClipPlayableProxy12CleanupProxyEv
264:__ZN19AudioSampleProvider6RemoveEj
265:__GLOBAL__sub_I_ClothScriptingClasses_cpp
266:__GLOBAL__sub_I_Modules_Cloth_0_cpp
267:___cxx_global_var_init_18
268:__GLOBAL__sub_I_nvcloth_src_0_cpp
269:__GLOBAL__sub_I_nvcloth_src_1_cpp
270:__GLOBAL__sub_I_SwInterCollision_cpp
271:__GLOBAL__sub_I_SwSolverKernel_cpp
272:__ZN13RuntimeStaticI12ClothStaticsLb0EE16StaticInitializeEPv
273:__ZN13RuntimeStaticI12ClothStaticsLb0EE13StaticDestroyEPv
274:__ZN24StaticInitializeInternal13ConstructTypeI12ClothStaticsLb0EEEPvS2_10MemLabelId
275:__ZN18ClothAssertHandlerclEPKcS1_iRb
276:__ZN16ClothErrorStream11reportErrorEN5physx11PxErrorCode4EnumEPKcS4_i
277:__ZN14ClothAllocator8allocateEmPKcS1_i
278:__ZN14ClothAllocator10deallocateEPv
279:__ZN9Scripting11UnityEngineL65__ManagedRegistrationHelperFunction_ClothSkinningCoefficientProxyEPv
280:__ZN9Scripting11UnityEngineL64__ManagedRegistrationHelperFunction_ClothSphereColliderPairProxyEPv
281:__ZN9Scripting11UnityEngine28ClothSphereColliderPairProxy9InitProxyEv
282:__ZN9Scripting11UnityEngine28ClothSphereColliderPairProxy12CleanupProxyEv
283:__ZN9Scripting11UnityEngine29ClothSkinningCoefficientProxy9InitProxyEv
284:__ZN9Scripting11UnityEngine29ClothSkinningCoefficientProxy12CleanupProxyEv
285:__ZN5Unity9rapidjson12GenericValueINS0_4UTF8IcEE13JSONAllocatorED2Ev
286:__ZN13dynamic_arrayIN24TextDOMTransferWriteBaseI9JSONWriteE10MetaParentELm0EED2Ev
287:__ZN9JSONWrite8TransferIN4core12basic_stringIcNS1_20StringStorageDefaultIcEEEEEEvRT_PKc17TransferMetaFlags
288:__ZN9JSONWrite8TransferIyEEvRT_PKc17TransferMetaFlags
289:__ZN9JSONWrite8TransferIbEEvRT_PKc17TransferMetaFlags
290:__ZN9JSONWrite8TransferIiEEvRT_PKc17TransferMetaFlags
291:__ZN9JSONWrite8TransferIjEEvRT_PKc17TransferMetaFlags
292:__GLOBAL__sub_I_Modules_DSPGraph_Public_1_cpp
293:__ZN13RuntimeStaticI22AudioOutputHookManagerLb0EE16StaticInitializeEPv
294:__ZN13RuntimeStaticI22AudioOutputHookManagerLb0EE13StaticDestroyEPv
295:__ZN13RuntimeStaticI15DSPGraphFactoryLb0EE13StaticDestroyEPv
296:__ZN19ThreadSpecificValueIP19ResourceContextNodeE15ReinitializeTLSEPv
297:__ZN15DSPGraphFactoryD2Ev
298:__ZN15DSPGraphFactory7ReleaseE11AudioHandle
299:__ZN18ConcurrentFreeListI15AudioHandleNodeE7CleanUpEv
300:__ZN24StaticInitializeInternal13ConstructTypeI15DSPGraphFactoryLb0EEEPvS2_10MemLabelId
301:__ZN8DSPGraph5ClearEv
302:__ZN8DSPGraphD2Ev
303:__ZN8DSPGraph19ProcessCommandQueueEv
304:__ZN8DSPGraph16MainThreadUpdateEb
305:__ZN13dynamic_arrayI15DSPCommandBlockLm0EED2Ev
306:__ZN13dynamic_arrayI7DSPNodeLm0EED2Ev
307:__ZN13dynamic_arrayIS_I17DSPSampleProviderLm0EELm0EED2Ev
308:__ZN13dynamic_arrayI17DSPSampleProviderLm0EED2Ev
309:__ZN22DSPNodeEventDispatcherD2Ev
310:__ZNSt3__26__treeINS_12__value_typeIjNS_14__map_iteratorINS_15__tree_iteratorINS1_Ix17ScriptingGCHandleEEPNS_11__tree_nodeIS5_PvEElEEEEEENS_19__map_value_compareIjSC_NS_4lessIjEELb1EEE13stl_allocatorISC_L18MemLabelIdentifier31ELi16EEE7destroyEPNS6_ISC_S7_EE
311:__ZNSt3__26__treeINS_12__value_typeIx17ScriptingGCHandleEENS_19__map_value_compareIxS3_NS_4lessIxEELb1EEE13stl_allocatorIS3_L18MemLabelIdentifier31ELi16EEE7destroyEPNS_11__tree_nodeIS3_PvEE
312:__Z23DisposeDSPNodeUpdateJobR26DSPNodeUpdateRequestHandleR13dynamic_arrayI20DSPNodeUpdateRequestLm0EE
313:__Z20UpdateDSPNodeRequestR26DSPNodeUpdateRequestHandleR13dynamic_arrayI20DSPNodeUpdateRequestLm0EEPvb
314:__Z16CountAllocationsR19ResourceContextNode
315:__Z36DeallocateAllResourceContextFromListR19ResourceContextNode
316:__ZNK22DSPNodeEventDispatcher8DispatchERK11AudioHandleRK13DSPNodeHandlexPv
317:__ZN22DSPNodeEventDispatcher5ClearEv
318:__ZN8DSPGraph18CreateCommandBlockEv
319:__ZN8DSPGraph20CompleteCommandBlockE21DSPCommandBlockHandle
320:__ZN8DSPGraph16FetchCommandNodeI13dynamic_arrayI13CommandPacketLm0EEJRK10MemLabelIdEEEP10AtomicNodeDpOT0_
321:__ZN13dynamic_arrayI7DSPNodeLm0EE18resize_initializedEm12ResizePolicy
322:__ZN13dynamic_arrayI17DSPSampleProviderLm0EE18resize_initializedEm12ResizePolicy
323:__ZN12DSPParameter8FreeKeysER13dynamic_arrayI15DSPParameterKeyLm0EEy
324:__ZN12DSPParameter9AppendKeyER13dynamic_arrayI15DSPParameterKeyLm0EEPS1_yRKN4math7_float4E
325:__ZL23AddParameterKeyInternalR12DSPParameterR13dynamic_arrayI15DSPParameterKeyLm0EEyRKN4math7_float4Eby
326:__Z16ExecuteUpdateJobR13dynamic_arrayI7DSPNodeLm0EEjR8JobFencePvS5_S5_
327:__ZN8DSPGraph16FetchCommandNodeI22UpdateReturnJobCommandJR26DSPNodeUpdateRequestHandleRPvbEEEP10AtomicNodeDpOT0_
328:__Z14ConnectDSPNodejjjjR13dynamic_arrayI10ConnectionLm0EERS_I7DSPNodeLm0EER19DSPConnectionHandle
329:__Z19FindConnectionIndexjjjjR13dynamic_arrayI10ConnectionLm0EERS_I7DSPNodeLm0EE
330:__Z20DisconnectConnectionjR13dynamic_arrayI10ConnectionLm0EERS_I7DSPNodeLm0EERS_I15DSPParameterKeyLm0EER18ConcurrentFreeListI15AudioHandleNodeE
331:__ZN8DSPGraph16FetchCommandNodeI23DestroyReturnJobCommandJRPvS3_RP19ResourceContextNodeEEEP10AtomicNodeDpOT0_
332:__ZL19DestroyNodeInternalR13dynamic_arrayI7DSPNodeLm0EERS_I10ConnectionLm0EERS_I15DSPParameterKeyLm0EER13DSPNodeHandleR18ConcurrentFreeListI15AudioHandleNodeERN4core8hash_setIjNSF_4hashIjEENSt3__28equal_toIjEEEE
333:__Z23InsertDSPSampleProviderR13dynamic_arrayI7DSPNodeLm0EEjRKN19AudioSampleProvider6HandleEji
334:__Z20SetDSPSampleProviderR13dynamic_arrayI7DSPNodeLm0EEjRKN19AudioSampleProvider6HandleEjj
335:__ZN4core8hash_setIjNS_4hashIjEENSt3__28equal_toIjEEE6insertIjEENS_4pairINS6_13node_iteratorIjEEbLb0EEEOT_
336:__Z23RemoveDSPSampleProviderR13dynamic_arrayI7DSPNodeLm0EEjiiRN4core8hash_setIjNS3_4hashIjEENSt3__28equal_toIjEEEE
337:__ZN8DSPGraph23HandleDestroyEverythingEv
338:__ZN13dynamic_arrayI17DSPSampleProviderLm0EE13clear_deallocEv
339:__ZN4core8hash_setIjNS_4hashIjEENSt3__28equal_toIjEEE6resizeEi
340:__Z24RemoveDSPSampleProvidersR13dynamic_arrayI7DSPNodeLm0EEjRN4core8hash_setIjNS3_4hashIjEENSt3__28equal_toIjEEEE
341:__ZL22ContainsCycleRecursiveRK13dynamic_arrayI7DSPNodeLm0EERKS_I10ConnectionLm0EEjj
342:__ZNK12DSPParameter10GetLastKeyER13dynamic_arrayI15DSPParameterKeyLm0EEy
343:__ZN20AutoLabelConstructorI7DSPNodeE11construct_nEPvm10MemLabelId
344:__ZN15DSPGraphFactoryC2Ev
345:__ZN22AudioOutputHookManagerD2Ev
346:__ZN22AudioOutputHookManager18ClearDefaultOutputEv
347:__ZN22AudioOutputHookManager12WaitForFlushEv
348:__ZN22AudioOutputHookManager6UpdateEv
349:__ZN22AudioOutputHookManager19FlushAddRemoveQueueEv
350:__ZN22AudioOutputHookManager14AddJobInternalER11AudioHandleP17JobReflectionDataPv
351:__ZN22AudioOutputHookManager17RemoveJobInternalER11AudioHandle
352:__ZN22AudioOutputHookManager14QueueRemoveJobEj
353:__ZN24StaticInitializeInternal13ConstructTypeI22AudioOutputHookManagerLb0EEEPvS2_10MemLabelId
354:__ZN22AudioOutputHookManagerC2Ev
355:__GLOBAL__sub_I_DirectorScriptingClasses_cpp
356:__ZN9Scripting11UnityEngine9PlayablesL57__ManagedRegistrationHelperFunction_PlayableDirectorProxyEPv
357:__ZN9Scripting11UnityEngine9Playables21PlayableDirectorProxy9InitProxyEv
358:__ZN9Scripting11UnityEngine9Playables21PlayableDirectorProxy12CleanupProxyEv
359:__GLOBAL__sub_I_GridScriptingClasses_cpp
360:__GLOBAL__sub_I_Modules_Grid_Public_0_cpp
361:__ZN9Scripting11UnityEngineL51__ManagedRegistrationHelperFunction_GridLayoutProxyEPv
362:__ZN9Scripting11UnityEngine15GridLayoutProxy9InitProxyEv
363:__ZN9Scripting11UnityEngine15GridLayoutProxy12CleanupProxyEv
364:__GLOBAL__sub_I_IMGUIScriptingClasses_cpp
365:__GLOBAL__sub_I_Modules_IMGUI_0_cpp
366:___cxx_global_var_init_23
367:__GLOBAL__sub_I_Modules_IMGUI_1_cpp
368:__Z15CleanupGUIStylePv
369:__ZN16memory_pool_implILi28EE15AutoPoolWrapper10InitializeEPv
370:__ZN16memory_pool_implILi28EE15AutoPoolWrapper12UninitializeEPv
371:__Z12FormatStringPKcz
372:__ZN9Scripting11UnityEngineL46__ManagedRegistrationHelperFunction_EventProxyEPv
373:__ZN9Scripting11UnityEngineL44__ManagedRegistrationHelperFunction_GUIProxyEPv
374:__ZN9Scripting11UnityEngineL51__ManagedRegistrationHelperFunction_GUIContentProxyEPv
375:__ZN9Scripting11UnityEngineL55__ManagedRegistrationHelperFunction_GUILayoutEntryProxyEPv
376:__ZN9Scripting11UnityEngineL55__ManagedRegistrationHelperFunction_GUILayoutGroupProxyEPv
377:__ZN9Scripting11UnityEngineL55__ManagedRegistrationHelperFunction_GUIScrollGroupProxyEPv
378:__ZN9Scripting11UnityEngineL48__ManagedRegistrationHelperFunction_GUISkinProxyEPv
379:__ZN9Scripting11UnityEngineL49__ManagedRegistrationHelperFunction_GUIStyleProxyEPv
380:__ZN9Scripting11UnityEngineL59__ManagedRegistrationHelperFunction_GUITargetAttributeProxyEPv
381:__ZN9Scripting11UnityEngineL51__ManagedRegistrationHelperFunction_GUIUtilityProxyEPv
382:__ZN9Scripting11UnityEngineL56__ManagedRegistrationHelperFunction_ScrollViewStateProxyEPv
383:__ZN9Scripting11UnityEngineL52__ManagedRegistrationHelperFunction_SliderStateProxyEPv
384:__ZN9Scripting11UnityEngineL51__ManagedRegistrationHelperFunction_TextEditorProxyEPv
385:__ZN9Scripting11UnityEngine15TextEditorProxy9InitProxyEv
386:__ZN9Scripting11UnityEngine15TextEditorProxy12CleanupProxyEv
387:__ZN9Scripting11UnityEngine16SliderStateProxy9InitProxyEv
388:__ZN9Scripting11UnityEngine16SliderStateProxy12CleanupProxyEv
389:__ZN9Scripting11UnityEngine20ScrollViewStateProxy9InitProxyEv
390:__ZN9Scripting11UnityEngine20ScrollViewStateProxy12CleanupProxyEv
391:__ZN9Scripting11UnityEngine15GUIUtilityProxy9InitProxyEv
392:__ZN9Scripting11UnityEngine15GUIUtilityProxy12CleanupProxyEv
393:__ZN9Scripting11UnityEngine23GUITargetAttributeProxy9InitProxyEv
394:__ZN9Scripting11UnityEngine23GUITargetAttributeProxy12CleanupProxyEv
395:__ZN9Scripting11UnityEngine13GUIStyleProxy9InitProxyEv
396:__ZN9Scripting11UnityEngine13GUIStyleProxy12CleanupProxyEv
397:__ZN9Scripting11UnityEngine12GUISkinProxy9InitProxyEv
398:__ZN9Scripting11UnityEngine12GUISkinProxy12CleanupProxyEv
399:__ZN9Scripting11UnityEngine19GUIScrollGroupProxy9InitProxyEv
400:__ZN9Scripting11UnityEngine19GUIScrollGroupProxy12CleanupProxyEv
401:__ZN9Scripting11UnityEngine19GUILayoutGroupProxy9InitProxyEv
402:__ZN9Scripting11UnityEngine19GUILayoutGroupProxy12CleanupProxyEv
403:__ZN9Scripting11UnityEngine19GUILayoutEntryProxy9InitProxyEv
404:__ZN9Scripting11UnityEngine19GUILayoutEntryProxy12CleanupProxyEv
405:__ZN9Scripting11UnityEngine15GUIContentProxy9InitProxyEv
406:__ZN9Scripting11UnityEngine15GUIContentProxy12CleanupProxyEv
407:__ZN9Scripting11UnityEngine8GUIProxy9InitProxyEv
408:__ZN9Scripting11UnityEngine8GUIProxy12CleanupProxyEv
409:__ZN9Scripting11UnityEngine10EventProxy9InitProxyEv
410:__ZN9Scripting11UnityEngine10EventProxy12CleanupProxyEv
411:___cxx_global_var_init_1301
412:__GLOBAL__sub_I_InputLegacyScriptingClasses_cpp
413:__ZN9Scripting11UnityEngineL56__ManagedRegistrationHelperFunction_SendMouseEventsProxyEPv
414:__ZN9Scripting11UnityEngine20SendMouseEventsProxy9InitProxyEv
415:__ZN9Scripting11UnityEngine20SendMouseEventsProxy12CleanupProxyEv
416:__GLOBAL__sub_I_InputScriptingClasses_cpp
417:__GLOBAL__sub_I_Modules_Input_Private_0_cpp
418:__ZN13RuntimeStaticI16InputSystemStateLb0EE16StaticInitializeEPv
419:__ZN13RuntimeStaticI16InputSystemStateLb0EE13StaticDestroyEPv
420:__ZN13dynamic_arrayIN28InputDeviceRegistrationState13NewDeviceInfoELm0EED2Ev
421:__ZN24StaticInitializeInternal13ConstructTypeI16InputSystemStateLb0EEEPvS2_10MemLabelId
422:__ZN9Scripting19UnityEngineInternal5InputL58__ManagedRegistrationHelperFunction_NativeInputSystemProxyEPv
423:__ZN9Scripting19UnityEngineInternal5Input22NativeInputSystemProxy9InitProxyEv
424:__ZN9Scripting19UnityEngineInternal5Input22NativeInputSystemProxy12CleanupProxyEv
425:__Z20ReportNewInputDeviceRK15InputDeviceInfo
426:__Z24ReportInputDeviceRemovedid
427:__Z15QueueInputEventRK14InputEventData
428:__ZN9JSONWrite12AppendToNodeEPN5Unity9rapidjson12GenericValueINS1_4UTF8IcEE13JSONAllocatorEEPKcRS6_
429:__ZN9JSONWrite27TransferStringToCurrentNodeEPKc
430:__ZN9JSONWrite14OutputToStringERN4core12basic_stringIcNS0_20StringStorageDefaultIcEEEEb
431:__ZNK5Unity9rapidjson12GenericValueINS0_4UTF8IcEE13JSONAllocatorE6AcceptINS0_6WriterI16TempBufferWriterS3_S3_S4_EEEEbRT_
432:__ZNK5Unity9rapidjson12GenericValueINS0_4UTF8IcEE13JSONAllocatorE6AcceptINS0_12PrettyWriterI16TempBufferWriterS3_S3_S4_EEEEbRT_
433:__ZN5Unity9rapidjson12PrettyWriterI16TempBufferWriterNS0_4UTF8IcEES4_13JSONAllocatorE12PrettyPrefixENS0_4TypeE
434:__ZN5Unity9rapidjson6WriterI16TempBufferWriterNS0_4UTF8IcEES4_13JSONAllocatorE9WriteNullEv
435:__ZN5Unity9rapidjson6WriterI16TempBufferWriterNS0_4UTF8IcEES4_13JSONAllocatorE9WriteBoolEb
436:__ZN5Unity9rapidjson12PrettyWriterI16TempBufferWriterNS0_4UTF8IcEES4_13JSONAllocatorE11StartObjectEv
437:__ZN5Unity9rapidjson6WriterI16TempBufferWriterNS0_4UTF8IcEES4_13JSONAllocatorE11WriteStringEPKcj
438:__ZN5Unity9rapidjson12PrettyWriterI16TempBufferWriterNS0_4UTF8IcEES4_13JSONAllocatorE9EndObjectEj
439:__ZN5Unity9rapidjson12PrettyWriterI16TempBufferWriterNS0_4UTF8IcEES4_13JSONAllocatorE10StartArrayEv
440:__ZN5Unity9rapidjson12PrettyWriterI16TempBufferWriterNS0_4UTF8IcEES4_13JSONAllocatorE8EndArrayEj
441:__ZN5Unity9rapidjson12PrettyWriterI16TempBufferWriterNS0_4UTF8IcEES4_13JSONAllocatorE3IntEi
442:__ZN5Unity9rapidjson8internal6u32toaEjPc
443:__ZN5Unity9rapidjson12PrettyWriterI16TempBufferWriterNS0_4UTF8IcEES4_13JSONAllocatorE5Int64Ex
444:__ZN5Unity9rapidjson8internal6u64toaEyPc
445:__ZN5Unity9rapidjson6WriterI16TempBufferWriterNS0_4UTF8IcEES4_13JSONAllocatorE11WriteDoubleEd
446:__ZN5Unity9rapidjson8internal6Grisu2EdPcPiS3_
447:__ZN5Unity9rapidjson8internal8PrettifyEPcii
448:__ZN5Unity9rapidjson8internal8DigitGenERKNS1_5DiyFpES4_yPcPiS6_
449:__ZN5Unity9rapidjson6WriterI16TempBufferWriterNS0_4UTF8IcEES4_13JSONAllocatorE4NullEv
450:__ZN5Unity9rapidjson6WriterI16TempBufferWriterNS0_4UTF8IcEES4_13JSONAllocatorE4BoolEb
451:__ZN5Unity9rapidjson6WriterI16TempBufferWriterNS0_4UTF8IcEES4_13JSONAllocatorE11StartObjectEv
452:__ZN5Unity9rapidjson6WriterI16TempBufferWriterNS0_4UTF8IcEES4_13JSONAllocatorE10StartArrayEv
453:__ZN5Unity9rapidjson6WriterI16TempBufferWriterNS0_4UTF8IcEES4_13JSONAllocatorE3IntEi
454:__ZN5Unity9rapidjson6WriterI16TempBufferWriterNS0_4UTF8IcEES4_13JSONAllocatorE4UintEj
455:__ZN5Unity9rapidjson6WriterI16TempBufferWriterNS0_4UTF8IcEES4_13JSONAllocatorE5Int64Ex
456:__ZN5Unity9rapidjson6WriterI16TempBufferWriterNS0_4UTF8IcEES4_13JSONAllocatorE6Uint64Ey
457:__ZN5Unity9rapidjson6WriterI16TempBufferWriterNS0_4UTF8IcEES4_13JSONAllocatorE6DoubleEd
458:__ZN9JSONWriteC2E24TransferInstructionFlagsPN4core12basic_stringIcNS1_20StringStorageDefaultIcEEEE
459:__ZN24TextDOMTransferWriteBaseI9JSONWriteEC2E24TransferInstructionFlagsPN4core12basic_stringIcNS3_20StringStorageDefaultIcEEEE
460:__GLOBAL__sub_I_SubsystemsScriptingClasses_cpp
461:__GLOBAL__sub_I_Modules_Subsystems_0_cpp
462:__ZN13RuntimeStaticI16SubsystemManagerLb0EE16StaticInitializeEPv
463:__ZN13RuntimeStaticI16SubsystemManagerLb0EE13StaticDestroyEPv
464:__ZN24StaticInitializeInternal13ConstructTypeI16SubsystemManagerLb0EEEPvS2_10MemLabelId
465:__ZN16SubsystemManagerD2Ev
466:__ZN16SubsystemManagerD0Ev
467:__ZN16SubsystemManager16CleanupInstancesEv
468:__ZN16SubsystemManager18CleanupDescriptorsEv
469:__ZNSt3__26__treeINS_12__value_typeIN4core12basic_stringIcNS2_20StringStorageDefaultIcEEEE25SubsystemPropertyBagValueEENS_19__map_value_compareIS6_S8_NS_4lessIS6_EELb1EEENS_9allocatorIS8_EEE7destroyEPNS_11__tree_nodeIS8_PvEE
470:__ZN9Scripting11UnityEngine24SubsystemsImplementation29SubsystemDescriptorStoreProxy23ClearManagedDescriptorsEP21ScriptingExceptionPtr
471:__ZL36InitializeSubsystemsScriptingClassesv
472:__ZL33CleanupSubsystemsScriptingClassesv
473:__ZN16SubsystemLibraryD2Ev
474:__ZN16SubsystemLibraryD0Ev
475:__ZN9Scripting11UnityEngine21SubsystemManagerProxy15ClearSubsystemsEP21ScriptingExceptionPtr
476:__ZN9Scripting11UnityEngineL60__ManagedRegistrationHelperFunction_IntegratedSubsystemProxyEPv
477:__ZN9Scripting11UnityEngineL62__ManagedRegistrationHelperFunction_IntegratedSubsystem_1ProxyEPv
478:__ZN9Scripting11UnityEngineL70__ManagedRegistrationHelperFunction_IntegratedSubsystemDescriptorProxyEPv
479:__ZN9Scripting11UnityEngineL72__ManagedRegistrationHelperFunction_IntegratedSubsystemDescriptor_1ProxyEPv
480:__ZN9Scripting11UnityEngineL70__ManagedRegistrationHelperFunction_Internal_SubsystemDescriptorsProxyEPv
481:__ZN9Scripting11UnityEngineL57__ManagedRegistrationHelperFunction_SubsystemManagerProxyEPv
482:__ZN9Scripting11UnityEngine10SubsystemsL57__ManagedRegistrationHelperFunction_ExampleSubsystemProxyEPv
483:__ZN9Scripting11UnityEngine10SubsystemsL67__ManagedRegistrationHelperFunction_ExampleSubsystemDescriptorProxyEPv
484:__ZN9Scripting11UnityEngine24SubsystemsImplementationL65__ManagedRegistrationHelperFunction_SubsystemDescriptorStoreProxyEPv
485:__ZN9Scripting11UnityEngine24SubsystemsImplementation29SubsystemDescriptorStoreProxy9InitProxyEv
486:__ZN9Scripting11UnityEngine24SubsystemsImplementation29SubsystemDescriptorStoreProxy12CleanupProxyEv
487:__ZN9Scripting11UnityEngine10Subsystems31ExampleSubsystemDescriptorProxy9InitProxyEv
488:__ZN9Scripting11UnityEngine10Subsystems31ExampleSubsystemDescriptorProxy12CleanupProxyEv
489:__ZN9Scripting11UnityEngine10Subsystems21ExampleSubsystemProxy9InitProxyEv
490:__ZN9Scripting11UnityEngine10Subsystems21ExampleSubsystemProxy12CleanupProxyEv
491:__ZN9Scripting11UnityEngine21SubsystemManagerProxy9InitProxyEv
492:__ZN9Scripting11UnityEngine21SubsystemManagerProxy12CleanupProxyEv
493:__ZN9Scripting11UnityEngine34Internal_SubsystemDescriptorsProxy9InitProxyEv
494:__ZN9Scripting11UnityEngine34Internal_SubsystemDescriptorsProxy12CleanupProxyEv
495:__ZN9Scripting11UnityEngine36IntegratedSubsystemDescriptor_1Proxy9InitProxyEv
496:__ZN9Scripting11UnityEngine36IntegratedSubsystemDescriptor_1Proxy12CleanupProxyEv
497:__ZN9Scripting11UnityEngine34IntegratedSubsystemDescriptorProxy9InitProxyEv
498:__ZN9Scripting11UnityEngine34IntegratedSubsystemDescriptorProxy12CleanupProxyEv
499:__ZN9Scripting11UnityEngine26IntegratedSubsystem_1Proxy9InitProxyEv
500:__ZN9Scripting11UnityEngine26IntegratedSubsystem_1Proxy12CleanupProxyEv
501:__ZN9Scripting11UnityEngine24IntegratedSubsystemProxy9InitProxyEv
502:__ZN9Scripting11UnityEngine24IntegratedSubsystemProxy12CleanupProxyEv
503:__GLOBAL__sub_I_TLS_cpp
504:__GLOBAL__sub_I_TerrainScriptingClasses_cpp
505:__GLOBAL__sub_I_Modules_Terrain_Public_0_cpp
506:__GLOBAL__sub_I_Modules_Terrain_Public_1_cpp
507:___cxx_global_var_init_89
508:__GLOBAL__sub_I_Modules_Terrain_Public_2_cpp
509:__GLOBAL__sub_I_Modules_Terrain_Public_3_cpp
510:__GLOBAL__sub_I_Modules_Terrain_VR_0_cpp
511:__ZL30InitializeSpeedTreeWindManagerPv
512:__ZL27DestroySpeedTreeWindManagerPv
513:__ZL25InitializeSplatStaticVarsPv
514:__ZL22DestroySplatStaticVarsPv
515:__ZL23InitializeCachedTriListPv
516:__ZL20DestroyCachedTriListPv
517:__ZZN20SpeedTreeWindManagerC1EvEN30PreUpdateWindUpdateRegistrator7ForwardEv
518:__ZN20SpeedTreeWindManager21PrepareWindPropertiesER19ShaderPropertySheetb
519:__ZN20SpeedTreeWindManager6UpdateEf
520:__ZN13SpeedTreeWind23SetDirectionAndStrengthERK8Vector4f
521:__ZN13SpeedTreeWind7AdvanceEbd
522:__ZN13SpeedTreeWind4GustEdd
523:__ZN16memory_pool_implILi40EE15AutoPoolWrapper10InitializeEPv
524:__ZN27QuadTreeBatchedNodeRenderer16StaticInitializeEPv
525:__ZN27QuadTreeBatchedNodeRenderer13StaticDestroyEPv
526:__ZN30DetailMeshIntermediateRenderer16StaticInitializeEPv
527:__ZN30DetailMeshIntermediateRenderer13StaticDestroyEPv
528:__ZN20QuadTreeNodeRenderer16StaticInitializeEPv
529:__ZN20QuadTreeNodeRenderer13StaticDestroyEPv
530:__ZN9Scripting11UnityEngineL56__ManagedRegistrationHelperFunction_DetailPrototypeProxyEPv
531:__ZN9Scripting11UnityEngine12Experimental10TerrainAPIL57__ManagedRegistrationHelperFunction_TerrainCallbacksProxyEPv
532:__ZN9Scripting11UnityEngine12Experimental10TerrainAPIL55__ManagedRegistrationHelperFunction_TerrainUtilityProxyEPv
533:__ZN9Scripting11UnityEngineL53__ManagedRegistrationHelperFunction_PatchExtentsProxyEPv
534:__ZN9Scripting11UnityEngineL55__ManagedRegistrationHelperFunction_SplatPrototypeProxyEPv
535:__ZN9Scripting11UnityEngineL48__ManagedRegistrationHelperFunction_TerrainProxyEPv
536:__ZN9Scripting11UnityEngineL52__ManagedRegistrationHelperFunction_TerrainDataProxyEPv
537:__ZN9Scripting11UnityEngineL53__ManagedRegistrationHelperFunction_TerrainLayerProxyEPv
538:__ZN9Scripting11UnityEngineL53__ManagedRegistrationHelperFunction_TreeInstanceProxyEPv
539:__ZN9Scripting11UnityEngineL54__ManagedRegistrationHelperFunction_TreePrototypeProxyEPv
540:__ZN9Scripting11UnityEngine18TreePrototypeProxy9InitProxyEv
541:__ZN9Scripting11UnityEngine18TreePrototypeProxy12CleanupProxyEv
542:__ZN9Scripting11UnityEngine17TreeInstanceProxy9InitProxyEv
543:__ZN9Scripting11UnityEngine17TreeInstanceProxy12CleanupProxyEv
544:__ZN9Scripting11UnityEngine17TerrainLayerProxy9InitProxyEv
545:__ZN9Scripting11UnityEngine17TerrainLayerProxy12CleanupProxyEv
546:__ZN9Scripting11UnityEngine16TerrainDataProxy9InitProxyEv
547:__ZN9Scripting11UnityEngine16TerrainDataProxy12CleanupProxyEv
548:__ZN9Scripting11UnityEngine12TerrainProxy9InitProxyEv
549:__ZN9Scripting11UnityEngine12TerrainProxy12CleanupProxyEv
550:__ZN9Scripting11UnityEngine19SplatPrototypeProxy9InitProxyEv
551:__ZN9Scripting11UnityEngine19SplatPrototypeProxy12CleanupProxyEv
552:__ZN9Scripting11UnityEngine17PatchExtentsProxy9InitProxyEv
553:__ZN9Scripting11UnityEngine17PatchExtentsProxy12CleanupProxyEv
554:__ZN9Scripting11UnityEngine12Experimental10TerrainAPI19TerrainUtilityProxy9InitProxyEv
555:__ZN9Scripting11UnityEngine12Experimental10TerrainAPI19TerrainUtilityProxy12CleanupProxyEv
556:__ZN9Scripting11UnityEngine12Experimental10TerrainAPI21TerrainCallbacksProxy9InitProxyEv
557:__ZN9Scripting11UnityEngine12Experimental10TerrainAPI21TerrainCallbacksProxy12CleanupProxyEv
558:__ZN9Scripting11UnityEngine20DetailPrototypeProxy9InitProxyEv
559:__ZN9Scripting11UnityEngine20DetailPrototypeProxy12CleanupProxyEv
560:__GLOBAL__sub_I_TextCoreScriptingClasses_cpp
561:__GLOBAL__sub_I_Modules_TextCore_Native_FontEngine_0_cpp
562:__ZN9Scripting11UnityEngine8TextCoreL49__ManagedRegistrationHelperFunction_FaceInfoProxyEPv
563:__ZN9Scripting11UnityEngine8TextCoreL46__ManagedRegistrationHelperFunction_GlyphProxyEPv
564:__ZN9Scripting11UnityEngine8TextCoreL53__ManagedRegistrationHelperFunction_GlyphMetricsProxyEPv
565:__ZN9Scripting11UnityEngine8TextCoreL50__ManagedRegistrationHelperFunction_GlyphRectProxyEPv
566:__ZN9Scripting11UnityEngine8TextCore8LowLevelL62__ManagedRegistrationHelperFunction_GlyphAdjustmentRecordProxyEPv
567:__ZN9Scripting11UnityEngine8TextCore8LowLevelL55__ManagedRegistrationHelperFunction_GlyphLoadFlagsProxyEPv
568:__ZN9Scripting11UnityEngine8TextCore8LowLevelL63__ManagedRegistrationHelperFunction_GlyphMarshallingStructProxyEPv
569:__ZN9Scripting11UnityEngine8TextCore8LowLevelL57__ManagedRegistrationHelperFunction_GlyphPackingModeProxyEPv
570:__ZN9Scripting11UnityEngine8TextCore8LowLevelL66__ManagedRegistrationHelperFunction_GlyphPairAdjustmentRecordProxyEPv
571:__ZN9Scripting11UnityEngine8TextCore8LowLevelL56__ManagedRegistrationHelperFunction_GlyphRenderModeProxyEPv
572:__ZN9Scripting11UnityEngine8TextCore8LowLevelL57__ManagedRegistrationHelperFunction_GlyphValueRecordProxyEPv
573:__ZN9Scripting11UnityEngine8TextCore8LowLevel21GlyphValueRecordProxy9InitProxyEv
574:__ZN9Scripting11UnityEngine8TextCore8LowLevel21GlyphValueRecordProxy12CleanupProxyEv
575:__ZN9Scripting11UnityEngine8TextCore8LowLevel20GlyphRenderModeProxy9InitProxyEv
576:__ZN9Scripting11UnityEngine8TextCore8LowLevel20GlyphRenderModeProxy12CleanupProxyEv
577:__ZN9Scripting11UnityEngine8TextCore8LowLevel30GlyphPairAdjustmentRecordProxy9InitProxyEv
578:__ZN9Scripting11UnityEngine8TextCore8LowLevel30GlyphPairAdjustmentRecordProxy12CleanupProxyEv
579:__ZN9Scripting11UnityEngine8TextCore8LowLevel21GlyphPackingModeProxy9InitProxyEv
580:__ZN9Scripting11UnityEngine8TextCore8LowLevel21GlyphPackingModeProxy12CleanupProxyEv
581:__ZN9Scripting11UnityEngine8TextCore8LowLevel27GlyphMarshallingStructProxy9InitProxyEv
582:__ZN9Scripting11UnityEngine8TextCore8LowLevel27GlyphMarshallingStructProxy12CleanupProxyEv
583:__ZN9Scripting11UnityEngine8TextCore8LowLevel19GlyphLoadFlagsProxy9InitProxyEv
584:__ZN9Scripting11UnityEngine8TextCore8LowLevel19GlyphLoadFlagsProxy12CleanupProxyEv
585:__ZN9Scripting11UnityEngine8TextCore8LowLevel26GlyphAdjustmentRecordProxy9InitProxyEv
586:__ZN9Scripting11UnityEngine8TextCore8LowLevel26GlyphAdjustmentRecordProxy12CleanupProxyEv
587:__ZN9Scripting11UnityEngine8TextCore14GlyphRectProxy9InitProxyEv
588:__ZN9Scripting11UnityEngine8TextCore14GlyphRectProxy12CleanupProxyEv
589:__ZN9Scripting11UnityEngine8TextCore17GlyphMetricsProxy9InitProxyEv
590:__ZN9Scripting11UnityEngine8TextCore17GlyphMetricsProxy12CleanupProxyEv
591:__ZN9Scripting11UnityEngine8TextCore10GlyphProxy9InitProxyEv
592:__ZN9Scripting11UnityEngine8TextCore10GlyphProxy12CleanupProxyEv
593:__ZN9Scripting11UnityEngine8TextCore13FaceInfoProxy9InitProxyEv
594:__ZN9Scripting11UnityEngine8TextCore13FaceInfoProxy12CleanupProxyEv
595:__GLOBAL__sub_I_TextRenderingScriptingClasses_cpp
596:__GLOBAL__sub_I_Modules_TextRendering_Public_0_cpp
597:__ZN13RuntimeStaticINSt3__26vectorIPN20TextRenderingPrivate21TextMeshGeneratorImplENS0_9allocatorIS4_EEEELb0EE16StaticInitializeEPv
598:__ZN13RuntimeStaticINSt3__26vectorIPN20TextRenderingPrivate21TextMeshGeneratorImplENS0_9allocatorIS4_EEEELb0EE13StaticDestroyEPv
599:__ZN9Scripting11UnityEngineL54__ManagedRegistrationHelperFunction_CharacterInfoProxyEPv
600:__ZN9Scripting11UnityEngineL45__ManagedRegistrationHelperFunction_FontProxyEPv
601:__ZN9Scripting11UnityEngineL54__ManagedRegistrationHelperFunction_TextGeneratorProxyEPv
602:__ZN9Scripting11UnityEngineL51__ManagedRegistrationHelperFunction_UICharInfoProxyEPv
603:__ZN9Scripting11UnityEngineL51__ManagedRegistrationHelperFunction_UILineInfoProxyEPv
604:__ZN9Scripting11UnityEngineL49__ManagedRegistrationHelperFunction_UIVertexProxyEPv
605:__ZN9Scripting11UnityEngine13UIVertexProxy9InitProxyEv
606:__ZN9Scripting11UnityEngine13UIVertexProxy12CleanupProxyEv
607:__ZN9Scripting11UnityEngine15UILineInfoProxy9InitProxyEv
608:__ZN9Scripting11UnityEngine15UILineInfoProxy12CleanupProxyEv
609:__ZN9Scripting11UnityEngine15UICharInfoProxy9InitProxyEv
610:__ZN9Scripting11UnityEngine15UICharInfoProxy12CleanupProxyEv
611:__ZN9Scripting11UnityEngine18TextGeneratorProxy9InitProxyEv
612:__ZN9Scripting11UnityEngine18TextGeneratorProxy12CleanupProxyEv
613:__ZN9Scripting11UnityEngine9FontProxy9InitProxyEv
614:__ZN9Scripting11UnityEngine9FontProxy12CleanupProxyEv
615:__ZN9Scripting11UnityEngine18CharacterInfoProxy9InitProxyEv
616:__ZN9Scripting11UnityEngine18CharacterInfoProxy12CleanupProxyEv
617:__GLOBAL__sub_I_TilemapScriptingClasses_cpp
618:__GLOBAL__sub_I_Modules_Tilemap_0_cpp
619:__GLOBAL__sub_I_Modules_Tilemap_Public_0_cpp
620:__ZN9Scripting11UnityEngine8TilemapsL49__ManagedRegistrationHelperFunction_ITilemapProxyEPv
621:__ZN9Scripting11UnityEngine8TilemapsL49__ManagedRegistrationHelperFunction_TileBaseProxyEPv
622:__ZN9Scripting11UnityEngine8TilemapsL45__ManagedRegistrationHelperFunction_TileProxyEPv
623:__ZN9Scripting11UnityEngine8TilemapsL58__ManagedRegistrationHelperFunction_TileAnimationDataProxyEPv
624:__ZN9Scripting11UnityEngine8TilemapsL49__ManagedRegistrationHelperFunction_TileDataProxyEPv
625:__ZN9Scripting11UnityEngine8TilemapsL56__ManagedRegistrationHelperFunction_TilemapRendererProxyEPv
626:__ZN9Scripting11UnityEngine8Tilemaps20TilemapRendererProxy9InitProxyEv
627:__ZN9Scripting11UnityEngine8Tilemaps20TilemapRendererProxy12CleanupProxyEv
628:__ZN9Scripting11UnityEngine8Tilemaps13TileDataProxy9InitProxyEv
629:__ZN9Scripting11UnityEngine8Tilemaps13TileDataProxy12CleanupProxyEv
630:__ZN9Scripting11UnityEngine8Tilemaps22TileAnimationDataProxy9InitProxyEv
631:__ZN9Scripting11UnityEngine8Tilemaps22TileAnimationDataProxy12CleanupProxyEv
632:__ZN9Scripting11UnityEngine8Tilemaps9TileProxy9InitProxyEv
633:__ZN9Scripting11UnityEngine8Tilemaps9TileProxy12CleanupProxyEv
634:__ZN9Scripting11UnityEngine8Tilemaps13TileBaseProxy9InitProxyEv
635:__ZN9Scripting11UnityEngine8Tilemaps13TileBaseProxy12CleanupProxyEv
636:__ZN9Scripting11UnityEngine8Tilemaps13ITilemapProxy9InitProxyEv
637:__ZN9Scripting11UnityEngine8Tilemaps13ITilemapProxy12CleanupProxyEv
638:__GLOBAL__sub_I_UIElementsNativeScriptingClasses_cpp
639:__GLOBAL__sub_I_External_Yoga_Yoga_0_cpp
640:__ZN9Scripting11UnityEngine10UIElementsL71__ManagedRegistrationHelperFunction_UIElementsRuntimeUtilityNativeProxyEPv
641:__ZN9Scripting11UnityEngine10UIElements3UIRL48__ManagedRegistrationHelperFunction_UtilityProxyEPv
642:__ZN9Scripting11UnityEngine4YogaL47__ManagedRegistrationHelperFunction_NativeProxyEPv
643:__ZN9Scripting11UnityEngine4Yoga11NativeProxy9InitProxyEv
644:__ZN9Scripting11UnityEngine4Yoga11NativeProxy12CleanupProxyEv
645:__ZN9Scripting11UnityEngine10UIElements3UIR12UtilityProxy9InitProxyEv
646:__ZN9Scripting11UnityEngine10UIElements3UIR12UtilityProxy12CleanupProxyEv
647:__ZN9Scripting11UnityEngine10UIElements35UIElementsRuntimeUtilityNativeProxy9InitProxyEv
648:__ZN9Scripting11UnityEngine10UIElements35UIElementsRuntimeUtilityNativeProxy12CleanupProxyEv
649:__GLOBAL__sub_I_UIScriptingClasses_cpp
650:__GLOBAL__sub_I_Modules_UI_0_cpp
651:__GLOBAL__sub_I_Modules_UI_1_cpp
652:__GLOBAL__sub_I_Modules_UI_2_cpp
653:__ZN13RuntimeStaticIP8MaterialLb0EE16StaticInitializeEPv
654:__ZN24StaticInitializeInternal13ConstructTypeIP8MaterialLb0EEEPvS3_10MemLabelId
655:__ZN31CanvasBatchIntermediateRenderer16StaticInitializeEPv
656:__ZN31CanvasBatchIntermediateRenderer13StaticDestroyEPv
657:__ZN9Scripting11UnityEngineL47__ManagedRegistrationHelperFunction_CanvasProxyEPv
658:__ZN9Scripting11UnityEngine11CanvasProxy9InitProxyEv
659:__ZN9Scripting11UnityEngine11CanvasProxy12CleanupProxyEv
660:__ZN5Umbra16FileOutputStreamD2Ev
661:__ZN5Umbra16FileOutputStreamD0Ev
662:__ZN5Umbra16FileOutputStream5writeEPKvj
663:__ZN5Umbra12StreamLogger3logENS_6Logger5LevelEPKc
664:__GLOBAL__sub_I_umbra_cpp
665:__GLOBAL__sub_I_UnityAnalyticsScriptingClasses_cpp
666:__ZN9Scripting11UnityEngine9AnalyticsL61__ManagedRegistrationHelperFunction_AnalyticsSessionInfoProxyEPv
667:__ZN9Scripting11UnityEngine9AnalyticsL62__ManagedRegistrationHelperFunction_AnalyticsSessionStateProxyEPv
668:__ZN9Scripting11UnityEngine9AnalyticsL56__ManagedRegistrationHelperFunction_ContinuousEventProxyEPv
669:__ZN9Scripting11UnityEngineL61__ManagedRegistrationHelperFunction_RemoteConfigSettingsProxyEPv
670:__ZN9Scripting11UnityEngine26RemoteConfigSettingsHelperL44__ManagedRegistrationHelperFunction_TagProxyEPv
671:__ZN9Scripting11UnityEngineL55__ManagedRegistrationHelperFunction_RemoteSettingsProxyEPv
672:__ZN9Scripting11UnityEngine19RemoteSettingsProxy9InitProxyEv
673:__ZN9Scripting11UnityEngine19RemoteSettingsProxy12CleanupProxyEv
674:__ZN9Scripting11UnityEngine26RemoteConfigSettingsHelper8TagProxy9InitProxyEv
675:__ZN9Scripting11UnityEngine26RemoteConfigSettingsHelper8TagProxy12CleanupProxyEv
676:__ZN9Scripting11UnityEngine25RemoteConfigSettingsProxy9InitProxyEv
677:__ZN9Scripting11UnityEngine25RemoteConfigSettingsProxy12CleanupProxyEv
678:__ZN9Scripting11UnityEngine9Analytics20ContinuousEventProxy9InitProxyEv
679:__ZN9Scripting11UnityEngine9Analytics20ContinuousEventProxy12CleanupProxyEv
680:__ZN9Scripting11UnityEngine9Analytics26AnalyticsSessionStateProxy9InitProxyEv
681:__ZN9Scripting11UnityEngine9Analytics26AnalyticsSessionStateProxy12CleanupProxyEv
682:__ZN9Scripting11UnityEngine9Analytics25AnalyticsSessionInfoProxy9InitProxyEv
683:__ZN9Scripting11UnityEngine9Analytics25AnalyticsSessionInfoProxy12CleanupProxyEv
684:__GLOBAL__sub_I_UnityAdsSettings_cpp
685:__GLOBAL__sub_I_UnityWebRequestScriptingClasses_cpp
686:__GLOBAL__sub_I_Modules_UnityWebRequest_Public_0_cpp
687:__ZN13RuntimeStaticI22UnityWebRequestManagerLb0EE16StaticInitializeEPv
688:__ZN13RuntimeStaticI22UnityWebRequestManagerLb0EE13StaticDestroyEPv
689:__ZN24StaticInitializeInternal13ConstructTypeI22UnityWebRequestManagerLb0EEEPvS2_10MemLabelId
690:__ZN9Scripting11UnityEngine10NetworkingL59__ManagedRegistrationHelperFunction_CertificateHandlerProxyEPv
691:__ZN9Scripting11UnityEngine10NetworkingL56__ManagedRegistrationHelperFunction_DownloadHandlerProxyEPv
692:__ZN9Scripting11UnityEngine10NetworkingL70__ManagedRegistrationHelperFunction_UnityWebRequestAsyncOperationProxyEPv
693:__ZN9Scripting19UnityEngineInternalL56__ManagedRegistrationHelperFunction_WebRequestUtilsProxyEPv
694:__ZN9Scripting19UnityEngineInternal20WebRequestUtilsProxy9InitProxyEv
695:__ZN9Scripting19UnityEngineInternal20WebRequestUtilsProxy12CleanupProxyEv
696:__ZN9Scripting11UnityEngine10Networking34UnityWebRequestAsyncOperationProxy9InitProxyEv
697:__ZN9Scripting11UnityEngine10Networking34UnityWebRequestAsyncOperationProxy12CleanupProxyEv
698:__ZN9Scripting11UnityEngine10Networking20DownloadHandlerProxy9InitProxyEv
699:__ZN9Scripting11UnityEngine10Networking20DownloadHandlerProxy12CleanupProxyEv
700:__ZN9Scripting11UnityEngine10Networking23CertificateHandlerProxy9InitProxyEv
701:__ZN9Scripting11UnityEngine10Networking23CertificateHandlerProxy12CleanupProxyEv
702:__GLOBAL__sub_I_VFXScriptingClasses_cpp
703:__GLOBAL__sub_I_Modules_VFX_Public_0_cpp
704:__GLOBAL__sub_I_Modules_VFX_Public_1_cpp
705:__GLOBAL__sub_I_Modules_VFX_Public_Systems_0_cpp
706:__GLOBAL__sub_I_VisualEffectAsset_cpp
707:__ZN16VFXCPUBufferDescD2Ev
708:__ZN13VFXBufferDescD2Ev
709:__ZN13VFXBufferDescD0Ev
710:__ZN16VFXCPUBufferDescD0Ev
711:__ZN9Scripting11UnityEngine3VFXL58__ManagedRegistrationHelperFunction_VFXEventAttributeProxyEPv
712:__ZN9Scripting11UnityEngine3VFXL59__ManagedRegistrationHelperFunction_VFXExposedPropertyProxyEPv
713:__ZN9Scripting11UnityEngine3VFXL60__ManagedRegistrationHelperFunction_VFXExpressionValuesProxyEPv
714:__ZN9Scripting11UnityEngine3VFXL51__ManagedRegistrationHelperFunction_VFXManagerProxyEPv
715:__ZN9Scripting11UnityEngine3VFXL62__ManagedRegistrationHelperFunction_VFXParticleSystemInfoProxyEPv
716:__ZN9Scripting11UnityEngine3VFXL60__ManagedRegistrationHelperFunction_VFXSpawnerCallbacksProxyEPv
717:__ZN9Scripting11UnityEngine3VFXL56__ManagedRegistrationHelperFunction_VFXSpawnerStateProxyEPv
718:__ZN9Scripting11UnityEngine3VFXL53__ManagedRegistrationHelperFunction_VisualEffectProxyEPv
719:__ZN9Scripting11UnityEngine3VFXL59__ManagedRegistrationHelperFunction_VisualEffectObjectProxyEPv
720:__ZN9Scripting11UnityEngine3VFXL58__ManagedRegistrationHelperFunction_VisualEffectAssetProxyEPv
721:__ZN9Scripting11UnityEngine3VFX22VisualEffectAssetProxy9InitProxyEv
722:__ZN9Scripting11UnityEngine3VFX22VisualEffectAssetProxy12CleanupProxyEv
723:__ZN9Scripting11UnityEngine3VFX23VisualEffectObjectProxy9InitProxyEv
724:__ZN9Scripting11UnityEngine3VFX23VisualEffectObjectProxy12CleanupProxyEv
725:__ZN9Scripting11UnityEngine3VFX17VisualEffectProxy9InitProxyEv
726:__ZN9Scripting11UnityEngine3VFX17VisualEffectProxy12CleanupProxyEv
727:__ZN9Scripting11UnityEngine3VFX20VFXSpawnerStateProxy9InitProxyEv
728:__ZN9Scripting11UnityEngine3VFX20VFXSpawnerStateProxy12CleanupProxyEv
729:__ZN9Scripting11UnityEngine3VFX24VFXSpawnerCallbacksProxy9InitProxyEv
730:__ZN9Scripting11UnityEngine3VFX24VFXSpawnerCallbacksProxy12CleanupProxyEv
731:__ZN9Scripting11UnityEngine3VFX26VFXParticleSystemInfoProxy9InitProxyEv
732:__ZN9Scripting11UnityEngine3VFX26VFXParticleSystemInfoProxy12CleanupProxyEv
733:__ZN9Scripting11UnityEngine3VFX15VFXManagerProxy9InitProxyEv
734:__ZN9Scripting11UnityEngine3VFX15VFXManagerProxy12CleanupProxyEv
735:__ZN9Scripting11UnityEngine3VFX24VFXExpressionValuesProxy9InitProxyEv
736:__ZN9Scripting11UnityEngine3VFX24VFXExpressionValuesProxy12CleanupProxyEv
737:__ZN9Scripting11UnityEngine3VFX23VFXExposedPropertyProxy9InitProxyEv
738:__ZN9Scripting11UnityEngine3VFX23VFXExposedPropertyProxy12CleanupProxyEv
739:__ZN9Scripting11UnityEngine3VFX22VFXEventAttributeProxy9InitProxyEv
740:__ZN9Scripting11UnityEngine3VFX22VFXEventAttributeProxy12CleanupProxyEv
741:__GLOBAL__sub_I_VRScriptingClasses_cpp
742:__GLOBAL__sub_I_Modules_VR_0_cpp
743:__GLOBAL__sub_I_Modules_VR_1_cpp
744:__GLOBAL__sub_I_PluginInterfaceVR_cpp
745:__ZN13RuntimeStaticINSt3__26vectorI23UnityVRDeviceDefinition13stl_allocatorIS2_L18MemLabelIdentifier97ELi16EEEELb0EE16StaticInitializeEPv
746:__ZN13RuntimeStaticINSt3__26vectorI23UnityVRDeviceDefinition13stl_allocatorIS2_L18MemLabelIdentifier97ELi16EEEELb0EE13StaticDestroyEPv
747:__ZL24StaticInitializeIUnityVRPv
748:__ZL16RegisterVRDevice23UnityVRDeviceDefinition
749:__ZL42RequestRecreateEyeTexturesBeforeNextUpdatev
750:__ZL21AreXRSubsystemsActivej
751:__ZL22FindVRDeviceDefinitionRKN4core12basic_stringIcNS_20StringStorageDefaultIcEEEE
752:__ZNSt3__26vectorI23UnityVRDeviceDefinition13stl_allocatorIS1_L18MemLabelIdentifier97ELi16EEE21__push_back_slow_pathIRKS1_EEvOT_
753:__ZN13RuntimeStaticI16VRInputSubsystemLb0EE16StaticInitializeEPv
754:__ZN13RuntimeStaticI16VRInputSubsystemLb0EE13StaticDestroyEPv
755:__ZN24StaticInitializeInternal13ConstructTypeI16VRInputSubsystemLb0EEEPvS2_10MemLabelId
756:__ZN16VRInputSubsystem6UpdateE22UnityXRInputUpdateType
757:__ZNK16VRInputSubsystem12ShouldUpdateEv
758:__ZN16VRInputSubsystem9SendEventE21UnityXRInputEventTypejPvj
759:__ZNK16VRInputSubsystem9GetDeviceEy
760:__ZNK16VRInputSubsystem12GetDeviceIdsEv
761:__ZNK16VRInputSubsystem23GetDeviceFromInternalIdEj
762:__ZNK16VRInputSubsystem5GetIdEv
763:__ZN16VRInputSubsystem22CacheDeviceStateAtTimeEjx
764:__ZN16VRInputSubsystemD2Ev
765:__ZN16VRInputSubsystemD0Ev
766:__ZN9VRHaptics21GetDeviceCapabilitiesEjR24HapticDeviceCapabilities
767:__ZN9VRHaptics11SendImpulseEjiff
768:__ZN9VRHaptics10SendBufferEjiPhj
769:__ZN9VRHaptics4StopEj
770:__ZN9Scripting11UnityEngine2XRL49__ManagedRegistrationHelperFunction_XRDeviceProxyEPv
771:__ZN9Scripting11UnityEngine2XR13XRDeviceProxy9InitProxyEv
772:__ZN9Scripting11UnityEngine2XR13XRDeviceProxy12CleanupProxyEv
773:__ZN13dynamic_arrayI24XRInputFeatureDefinitionLm0EED2Ev
774:__ZN13dynamic_arrayI21XRInputFeatureUsageIdLm0EED2Ev
775:__ZN13dynamic_arrayI24XRInputFeatureDefinitionLm0EE6assignEPKS0_S3_
776:__ZN13dynamic_arrayI21XRInputFeatureUsageIdLm0EEC2ERKS1_
777:__ZN4core8hash_mapIjiNS_4hashIjEENSt3__28equal_toIjEEEixERKj
778:__GLOBAL__sub_I_VideoScriptingClasses_cpp
779:__GLOBAL__sub_I_Modules_Video_Public_Base_0_cpp
780:__GLOBAL__sub_I_Modules_Video_Public_Base_1_cpp
781:__ZN9Scripting11UnityEngine12Experimental5VideoL58__ManagedRegistrationHelperFunction_VideoClipPlayableProxyEPv
782:__ZN9Scripting11UnityEngine5VideoL54__ManagedRegistrationHelperFunction_Video3DLayoutProxyEPv
783:__ZN9Scripting11UnityEngine5VideoL57__ManagedRegistrationHelperFunction_VideoAspectRatioProxyEPv
784:__ZN9Scripting11UnityEngine5VideoL61__ManagedRegistrationHelperFunction_VideoAudioOutputModeProxyEPv
785:__ZN9Scripting11UnityEngine5VideoL50__ManagedRegistrationHelperFunction_VideoClipProxyEPv
786:__ZN9Scripting11UnityEngine5VideoL52__ManagedRegistrationHelperFunction_VideoPlayerProxyEPv
787:__ZN9Scripting11UnityEngine5VideoL56__ManagedRegistrationHelperFunction_VideoRenderModeProxyEPv
788:__ZN9Scripting11UnityEngine5VideoL52__ManagedRegistrationHelperFunction_VideoSourceProxyEPv
789:__ZN9Scripting11UnityEngine5VideoL59__ManagedRegistrationHelperFunction_VideoTimeReferenceProxyEPv
790:__ZN9Scripting11UnityEngine5VideoL56__ManagedRegistrationHelperFunction_VideoTimeSourceProxyEPv
791:__ZN9Scripting19UnityEngineInternal5VideoL57__ManagedRegistrationHelperFunction_VideoAlphaLayoutProxyEPv
792:__ZN9Scripting19UnityEngineInternal5VideoL51__ManagedRegistrationHelperFunction_VideoErrorProxyEPv
793:__ZN9Scripting19UnityEngineInternal5VideoL57__ManagedRegistrationHelperFunction_VideoPixelFormatProxyEPv
794:__ZN9Scripting19UnityEngineInternal5VideoL54__ManagedRegistrationHelperFunction_VideoPlaybackProxyEPv
795:__ZN9Scripting19UnityEngineInternal5VideoL57__ManagedRegistrationHelperFunction_VideoPlaybackMgrProxyEPv
796:__ZN9Scripting19UnityEngineInternal5Video21VideoPlaybackMgrProxy9InitProxyEv
797:__ZN9Scripting19UnityEngineInternal5Video21VideoPlaybackMgrProxy12CleanupProxyEv
798:__ZN9Scripting19UnityEngineInternal5Video18VideoPlaybackProxy9InitProxyEv
799:__ZN9Scripting19UnityEngineInternal5Video18VideoPlaybackProxy12CleanupProxyEv
800:__ZN9Scripting19UnityEngineInternal5Video21VideoPixelFormatProxy9InitProxyEv
801:__ZN9Scripting19UnityEngineInternal5Video21VideoPixelFormatProxy12CleanupProxyEv
802:__ZN9Scripting19UnityEngineInternal5Video15VideoErrorProxy9InitProxyEv
803:__ZN9Scripting19UnityEngineInternal5Video15VideoErrorProxy12CleanupProxyEv
804:__ZN9Scripting19UnityEngineInternal5Video21VideoAlphaLayoutProxy9InitProxyEv
805:__ZN9Scripting19UnityEngineInternal5Video21VideoAlphaLayoutProxy12CleanupProxyEv
806:__ZN9Scripting11UnityEngine5Video20VideoTimeSourceProxy9InitProxyEv
807:__ZN9Scripting11UnityEngine5Video20VideoTimeSourceProxy12CleanupProxyEv
808:__ZN9Scripting11UnityEngine5Video23VideoTimeReferenceProxy9InitProxyEv
809:__ZN9Scripting11UnityEngine5Video23VideoTimeReferenceProxy12CleanupProxyEv
810:__ZN9Scripting11UnityEngine5Video16VideoSourceProxy9InitProxyEv
811:__ZN9Scripting11UnityEngine5Video16VideoSourceProxy12CleanupProxyEv
812:__ZN9Scripting11UnityEngine5Video20VideoRenderModeProxy9InitProxyEv
813:__ZN9Scripting11UnityEngine5Video20VideoRenderModeProxy12CleanupProxyEv
814:__ZN9Scripting11UnityEngine5Video16VideoPlayerProxy9InitProxyEv
815:__ZN9Scripting11UnityEngine5Video16VideoPlayerProxy12CleanupProxyEv
816:__ZN9Scripting11UnityEngine5Video14VideoClipProxy9InitProxyEv
817:__ZN9Scripting11UnityEngine5Video14VideoClipProxy12CleanupProxyEv
818:__ZN9Scripting11UnityEngine5Video25VideoAudioOutputModeProxy9InitProxyEv
819:__ZN9Scripting11UnityEngine5Video25VideoAudioOutputModeProxy12CleanupProxyEv
820:__ZN9Scripting11UnityEngine5Video21VideoAspectRatioProxy9InitProxyEv
821:__ZN9Scripting11UnityEngine5Video21VideoAspectRatioProxy12CleanupProxyEv
822:__ZN9Scripting11UnityEngine5Video18Video3DLayoutProxy9InitProxyEv
823:__ZN9Scripting11UnityEngine5Video18Video3DLayoutProxy12CleanupProxyEv
824:__ZN9Scripting11UnityEngine12Experimental5Video22VideoClipPlayableProxy9InitProxyEv
825:__ZN9Scripting11UnityEngine12Experimental5Video22VideoClipPlayableProxy12CleanupProxyEv
826:__ZNK11WindManager16ComputeWindForceERK4AABB
827:__ZNK11WindManager17ComputeWindVectorERK4AABB12WindZoneMode
828:__ZNK11WindManager15GetWindZoneListEv
829:__ZNK11WindManager22QueryWindZoneComponentEP10GameObject
830:__ZNK8WindZone17ComputeWindVectorERK4AABBR8Vector4f
831:__ZNK8WindZone16ComputeWindForceERK4AABBf
832:__GLOBAL__sub_I_Wind_cpp
833:__ZN13RuntimeStaticI11WindManagerLb0EE16StaticInitializeEPv
834:__ZN13RuntimeStaticI11WindManagerLb0EE13StaticDestroyEPv
835:__ZN24StaticInitializeInternal13ConstructTypeI11WindManagerLb0EEEPvS2_10MemLabelId
836:__GLOBAL__sub_I_XRScriptingClasses_cpp
837:__GLOBAL__sub_I_Modules_XR_0_cpp
838:__GLOBAL__sub_I_XRAudio_cpp
839:__GLOBAL__sub_I_XRPreInit_cpp
840:__GLOBAL__sub_I_Modules_XR_Public_0_cpp
841:__GLOBAL__sub_I_Modules_XR_Stats_0_cpp
842:__GLOBAL__sub_I_Modules_XR_Subsystems_Display_0_cpp
843:__GLOBAL__sub_I_Modules_XR_Subsystems_Input_Public_0_cpp
844:__GLOBAL__sub_I_Modules_XR_Subsystems_Input_Public_1_cpp
845:__GLOBAL__sub_I_Modules_XR_Subsystems_Meshing_0_cpp
846:__GLOBAL__sub_I_Modules_XR_Tracing_0_cpp
847:__GLOBAL__sub_I_XRWindowsLocatableCamera_cpp
848:__ZN13RuntimeStaticI24XRWindowsLocatableCameraLb0EE16StaticInitializeEPv
849:__ZN24StaticInitializeInternal13ConstructTypeI24XRWindowsLocatableCameraLb0EEEPvS2_10MemLabelId
850:__ZL40Internal_RegisterLocatableCameraProviderPK35UnityWindowsLocatableCameraProvider
851:__ZL41Internal_UnregisterLocatableCameraProvderv
852:__ZNK24XRWindowsLocatableCamera34TryGetCameraMatricesFromNativeDataEPvR10Matrix4x4fS2_
853:__ZNK24XRWindowsLocatableCamera33TryGetVideoMatricesFromNativeDataEPvR10Matrix4x4fS2_
854:__ZN24XRWindowsLocatableCameraD2Ev
855:__ZN24XRWindowsLocatableCameraD0Ev
856:__ZNK24XRWindowsLocatableCamera36ProviderTryGetMatricesFromNativeDataE31UnityWindowsLocatableCameraTypePvR10Matrix4x4fS3_
857:__ZN13RuntimeStaticI7XRTraceLb0EE16StaticInitializeEPv
858:__ZN24StaticInitializeInternal13ConstructTypeI7XRTraceLb0EEEPvS2_10MemLabelId
859:__ZL14Internal_Trace9XRLogTypePKcz
860:__ZN13RuntimeStaticIN2xr15MeshJobDataPoolELb1EE13StaticDestroyEPv
861:__ZNK29UnresolvedXRScriptingClassPtr24ResolveScriptingClassPtrEv
862:__ZN29UnresolvedXRScriptingClassPtr19ResolveScriptingPtrEv
863:__Z21GetXRScriptingClassesv
864:__ZL28InitializeXRScriptingClassesv
865:__ZL25CleanupXRScriptingClassesv
866:__ZN13RuntimeStaticI24XRDisconnectedDeviceInfoLb0EE16StaticInitializeEPv
867:__ZN13RuntimeStaticI14XRInputDevicesLb0EE16StaticInitializeEPv
868:__ZL17InitInputMappingsPv
869:__ZL20CleanupInputMappingsPv
870:__ZN13RuntimeStaticI14XRInputManagerLb0EE16StaticInitializeEPv
871:__ZN13RuntimeStaticI12XRInputToISXLb0EE16StaticInitializeEPv
872:__ZN13RuntimeStaticI15XRInputTrackingLb0EE16StaticInitializeEPv
873:__ZL21InitNodeToNameMappingPv
874:__ZL24CleanupNodeToNameMappingPv
875:__ZN13RuntimeStaticI21XRInputTrackingFacadeLb0EE16StaticInitializeEPv
876:__ZN24StaticInitializeInternal13ConstructTypeI21XRInputTrackingFacadeLb0EEEPvS2_10MemLabelId
877:__ZN21XRInputFeatureUsageIdC2EPKc
878:__ZN24StaticInitializeInternal13ConstructTypeI15XRInputTrackingLb0EEEPvS2_10MemLabelId
879:__ZN15XRInputTrackingC2Ev
880:__ZN23XRInputSubsystemManager11AddListenerEP25IXRInputSubsystemListener
881:__ZNK23XRInputSubsystemManager14GetInputDeviceEy
882:__ZN15XRInputTrackingD2Ev
883:__ZN15XRInputTrackingD0Ev
884:__ZN15XRInputTracking17OnDeviceConnectedEPK13XRInputDevice
885:__ZN15XRInputTracking20OnDeviceDisconnectedEPK13XRInputDevice
886:__ZN15XRInputTracking28OnDeviceConfigurationChangedEPK13XRInputDevice
887:__ZN15XRInputTracking21OnDeviceStatesUpdatedE22UnityXRInputUpdateType
888:__ZN15XRInputTracking19FlushTrackingEventsEv
889:__ZNK13XRInputDevice18TryGetFeatureValueEjRb
890:__ZN9Scripting11UnityEngine2XR18InputTrackingProxy19InvokeTrackingEventEiixbP21ScriptingExceptionPtr
891:__ZNK13XRInputDevice23FindFeatureIndexByUsageE21XRInputFeatureUsageId
892:__ZN13dynamic_arrayIN15XRInputTracking22XRNodeToFeatureMappingELm0EED2Ev
893:__ZN23XRInputSubsystemManager14RemoveListenerEP25IXRInputSubsystemListener
894:__ZN24StaticInitializeInternal13ConstructTypeI23XRInputSubsystemManagerLb0EEEPvS2_10MemLabelId
895:__ZN23XRInputSubsystemManagerC2Ev
896:__ZL39InputSubsystemDynamicUpdateFromCallbackv
897:__ZL44InputSubsystemBeforeRenderUpdateFromCallbackv
898:__ZL29InputSubsystemHandleAppPausedb
899:__ZL19InputSubsystemResetv
900:__ZN24StaticInitializeInternal13ConstructTypeI17XREngineCallbacksLb0EEEPvS2_10MemLabelId
901:__ZN17XREngineCallbacksC2Ev
902:__ZZN17XREngineCallbacksC1EvEN38InitializationXREarlyUpdateRegistrator7ForwardEv
903:__ZZN17XREngineCallbacksC1EvEN30EarlyUpdateXRUpdateRegistrator7ForwardEv
904:__ZZN17XREngineCallbacksC1EvEN35FixedUpdateXRFixedUpdateRegistrator7ForwardEv
905:__ZZN17XREngineCallbacksC1EvEN41PostLateUpdateXRPostLateUpdateRegistrator7ForwardEv
906:__ZZN17XREngineCallbacksC1EvEN38PostLateUpdateXRPreEndFrameRegistrator7ForwardEv
907:__ZZN17XREngineCallbacksC1EvEN34FrameEventsXRBeginFrameRegistrator7ForwardEv
908:__ZZN17XREngineCallbacksC1EvEN32FrameEventsXREndFrameRegistrator7ForwardEv
909:__ZZN17XREngineCallbacksC1EvEN35FrameEventsXRPostPresentRegistrator7ForwardEv
910:__ZL30XREngineCallbacks_PlayerPausedb
911:__ZN17XREngineCallbacks24InvokeGraphicsThreadSyncEv
912:__ZN25IXRInputSubsystemListenerD2Ev
913:__ZN25IXRInputSubsystemListenerD0Ev
914:__ZN24StaticInitializeInternal13ConstructTypeI12XRInputToISXLb0EEEPvS2_10MemLabelId
915:__ZN12XRInputToISXC2Ev
916:__ZN12XRInputToISXD2Ev
917:__ZN12XRInputToISXD0Ev
918:__ZN12XRInputToISX17OnDeviceConnectedEPK13XRInputDevice
919:__ZN12XRInputToISX20OnDeviceDisconnectedEPK13XRInputDevice
920:__ZN12XRInputToISX21OnDeviceStatesUpdatedE22UnityXRInputUpdateType
921:__ZN13XRToISXDevice12OnPostUpdateE22UnityXRInputUpdateType
922:__Z30GetBytesRequiredForFeatureType23UnityXRInputFeatureType
923:__ZN13XRToISXDeviceC2EPK13XRInputDevice
924:__ZN23XRInputDeviceDescriptorC2EPK28UnityXRInputDeviceDefinition
925:__Z29InputDeviceDescriptorToStringI23XRInputDeviceDescriptorEN4core12basic_stringIcNS1_20StringStorageDefaultIcEEEERKT_
926:__ZN13XRToISXDevice22BuildFeatureIndexCacheEv
927:__ZN9JSONWrite8TransferI13dynamic_arrayI24XRInputFeatureDefinitionLm0EEEEvRT_PKc17TransferMetaFlags
928:__ZN9JSONWrite8TransferI24XRInputFeatureDefinitionEEvRT_PKc17TransferMetaFlags
929:__ZN9JSONWrite8TransferI13dynamic_arrayI21XRInputFeatureUsageIdLm0EEEEvRT_PKc17TransferMetaFlags
930:__ZN9JSONWrite8TransferI21XRInputFeatureUsageIdEEvRT_PKc17TransferMetaFlags
931:__ZN13XRToISXDevice5IOCTLEiPvi
932:__ZN13XRToISXDeviceD2Ev
933:__ZN13XRToISXDeviceD0Ev
934:__ZN23XRInputSubsystemManager9SendEventE21UnityXRInputEventTypeyPvj
935:__ZN24StaticInitializeInternal13ConstructTypeI14XRInputManagerLb0EEEPvS2_10MemLabelId
936:__ZN14XRInputManagerC2Ev
937:__ZN14XRInputManagerD2Ev
938:__ZN14XRInputManagerD0Ev
939:__ZN14XRInputManager7OnResetEv
940:__ZN14XRInputManager17OnDeviceConnectedEPK13XRInputDevice
941:__ZN14XRInputManager20OnDeviceDisconnectedEPK13XRInputDevice
942:__ZN14XRInputManager21OnDeviceStatesUpdatedE22UnityXRInputUpdateType
943:__ZNK13XRInputDevice18TryGetFeatureValueEjRf
944:__ZNK13XRInputDevice18TryGetFeatureValueEjRKN4math7_float2E
945:__ZN13dynamic_arrayIN14XRInputManager15XRDeviceMappingELm0EED2Ev
946:__ZN24StaticInitializeInternal13ConstructTypeI14XRInputDevicesLb0EEEPvS2_10MemLabelId
947:__ZN14XRInputDevicesC2Ev
948:__ZN14XRInputDevicesD2Ev
949:__ZN14XRInputDevicesD0Ev
950:__ZN14XRInputDevices17OnDeviceConnectedEPK13XRInputDevice
951:__ZN14XRInputDevices20OnDeviceDisconnectedEPK13XRInputDevice
952:__ZN14XRInputDevices28OnDeviceConfigurationChangedEPK13XRInputDevice
953:__ZN14XRInputDevices21OnDeviceStatesUpdatedE22UnityXRInputUpdateType
954:__ZN14XRInputDevices21FlushConnectionEventsEv
955:__ZN9Scripting11UnityEngine2XR17InputDevicesProxy21InvokeConnectionEventEyiP21ScriptingExceptionPtr
956:__ZN24StaticInitializeInternal13ConstructTypeI24XRDisconnectedDeviceInfoLb0EEEPvS2_10MemLabelId
957:__ZN24XRDisconnectedDeviceInfoC2Ev
958:__ZN24XRDisconnectedDeviceInfoD2Ev
959:__ZN24XRDisconnectedDeviceInfoD0Ev
960:__ZN24XRDisconnectedDeviceInfo17OnDeviceConnectedEPK13XRInputDevice
961:__ZN24XRDisconnectedDeviceInfo20OnDeviceDisconnectedEPK13XRInputDevice
962:__ZNK28UnityXRInputDeviceDefinition5CloneEv
963:__ZN28UnityXRInputDeviceDefinition7SetNameEPKc
964:__ZN28UnityXRInputDeviceDefinition18SetCharacteristicsE33UnityXRInputDeviceCharacteristics
965:__ZN28UnityXRInputDeviceDefinition15SetManufacturerEPKc
966:__ZN28UnityXRInputDeviceDefinition15SetSerialNumberEPKc
967:__ZN28UnityXRInputDeviceDefinition31SetCanQueryForDeviceStateAtTimeEb
968:__ZN28UnityXRInputDeviceDefinition10AddFeatureEPKc23UnityXRInputFeatureType
969:__ZN28UnityXRInputDeviceDefinition16AddCustomFeatureEPKcj
970:__ZN28UnityXRInputDeviceDefinition19AddFeatureWithUsageEPKc23UnityXRInputFeatureTypeS1_
971:__ZN28UnityXRInputDeviceDefinition15AddUsageAtIndexEjPKc
972:__ZN13dynamic_arrayI28UnityXRInputDeviceDefinitionLm0EED2Ev
973:__ZN13RuntimeStaticI23XRInputSubsystemManagerLb0EE16StaticInitializeEPv
974:__ZN13RuntimeStaticI23XRInputSubsystemManagerLb0EE13StaticDestroyEPv
975:__ZN13RuntimeStaticI9XRDisplayLb0EE16StaticInitializeEPv
976:__ZN13RuntimeStaticI9XRDisplayLb0EE13StaticDestroyEPv
977:__ZN13RuntimeStaticI13dynamic_arrayIP28XRDisplaySubsystemDescriptorLm0EELb0EE16StaticInitializeEPv
978:__ZN24StaticInitializeInternal13ConstructTypeI9XRDisplayLb0EEEPvS2_10MemLabelId
979:__ZN9XRDisplay20IsLateLatchSupportedEv
980:__ZN9XRDisplay23BeginLateLatchRecordingEP6CamerabP10Matrix4x4f
981:__ZN9XRDisplay21EndLateLatchRecordingEP6Camera
982:__ZN9XRDisplay17GetLateLatchFlagsEi
983:__ZN9XRDisplay26GetLateLatchHierarchyIndexEi
984:__ZN9XRDisplay28UpdateLateLatchIndexAndFlagsEP18TransformHierarchyjRt14LateLatchFlags
985:__ZN9XRDisplayD2Ev
986:__ZN9XRDisplayD0Ev
987:__ZN18XRDisplaySubsystem28UpdateLateLatchIndexAndFlagsEP18TransformHierarchyjRt14LateLatchFlags
988:__ZN18XRDisplaySubsystem17NodeIsLateLatchedEP18TransformHierarchyj
989:__ZN4core8hash_mapIP18TransformHierarchyNS0_IjiNS_4hashIjEENSt3__28equal_toIjEEEENS3_IS2_EENS6_IS2_EEEixERKS2_
990:__ZN4core8hash_setINS_4pairIKP18TransformHierarchyNS_8hash_mapIjiNS_4hashIjEENSt3__28equal_toIjEEEELb1EEENS_9hash_pairINS6_IS3_EES4_SB_EENS_10equal_pairINS9_IS3_EES4_SB_EEE6resizeEi
991:__ZN4core8hash_setINS_4pairIKjiLb0EEENS_9hash_pairINS_4hashIjEES2_iEENS_10equal_pairINSt3__28equal_toIjEES2_iEEEaSERKSD_
992:__ZN18XRDisplaySubsystem26GetLateLatchHierarchyIndexEi
993:__ZN18XRDisplaySubsystem17GetLateLatchFlagsEi
994:__ZN18XRDisplaySubsystem28TryEndRecordingIfLateLatchedEP6Camera
995:__ZN18XRDisplaySubsystem30TryBeginRecordingIfLateLatchedEP6CamerabP10Matrix4x4f
996:__ZN13RuntimeStaticI7XRStatsLb0EE13StaticDestroyEPv
997:__ZN13RuntimeStaticI16XRStatsInterfaceLb0EE16StaticInitializeEPv
998:__ZN24StaticInitializeInternal13ConstructTypeI16XRStatsInterfaceLb0EEEPvS2_10MemLabelId
999:__ZL27Internal_RegisterStatSourcePv
1000:__ZL31Internal_RegisterStatDefinitionPvPKcj
1001:__ZL21Internal_SetStatFloatjf
1002:__ZL27Internal_IncrementStatFramev
1003:__ZL29Internal_UnregisterStatSourcePv
1004:__ZN24StaticInitializeInternal13ConstructTypeI7XRStatsLb0EEEPvS2_10MemLabelId
1005:__ZN7XRStats20UnregisterStatSourceEPv
1006:__ZN7XRStats8ShutdownEv
1007:__ZN7XRStats21XRCallback_BeginFrameEPS_
1008:__ZN7XRStats22Callback_EnterPlaymodeEPS_
1009:__ZN4core8hash_setINS_4pairIKPvNS_8hash_mapINS_12basic_stringIcNS_20StringStorageDefaultIcEEEEjNS_4hashIS8_EENSt3__28equal_toIS8_EEEELb1EEENS_9hash_pairINS9_IS2_EES3_SE_EENS_10equal_pairINSC_IS2_EES3_SE_EEE12delete_nodesEv
1010:__ZN7XRStats12XRBeginFrameEv
1011:__ZN7XRStats19PopulateStatsValuesER11StatCommandR13dynamic_arrayIS0_Lm0EE
1012:__ZN7XRStatsC2Ev
1013:__ZN7XRStats12SetStatFloatEjf
1014:__ZN7XRStats22RegisterStatDefinitionEPvPKcj
1015:__ZN4core8hash_mapIPvNS0_INS_12basic_stringIcNS_20StringStorageDefaultIcEEEEjNS_4hashIS5_EENSt3__28equal_toIS5_EEEENS6_IS1_EENS9_IS1_EEEixERKS1_
1016:__ZNK4core8hash_setINS_4pairIKNS_12basic_stringIcNS_20StringStorageDefaultIcEEEEjLb1EEENS_9hash_pairINS_4hashIS5_EES6_jEENS_10equal_pairINSt3__28equal_toIS5_EES6_jEEE6lookupIS5_SG_EEPNSH_4nodeERKT_RKT0_
1017:__ZN4core8hash_mapINS_12basic_stringIcNS_20StringStorageDefaultIcEEEEjNS_4hashIS4_EENSt3__28equal_toIS4_EEEixERKS4_
1018:__ZN4core8hash_mapINS_12basic_stringIcNS_20StringStorageDefaultIcEEEEjNS_4hashIS4_EENSt3__28equal_toIS4_EEE15insert_internalIS4_jEENS_4pairINS_8hash_setINSC_IKS4_jLb1EEENS_9hash_pairIS6_SE_jEENS_10equal_pairIS9_SE_jEEE13node_iteratorISF_EEbLb0EEEOT_OT0_
1019:__ZN4core8hash_setINS_4pairIKNS_12basic_stringIcNS_20StringStorageDefaultIcEEEEjLb1EEENS_9hash_pairINS_4hashIS5_EES6_jEENS_10equal_pairINSt3__28equal_toIS5_EES6_jEEE6resizeEi
1020:__ZN4core8hash_setINS_4pairIKNS_12basic_stringIcNS_20StringStorageDefaultIcEEEEjLb1EEENS_9hash_pairINS_4hashIS5_EES6_jEENS_10equal_pairINSt3__28equal_toIS5_EES6_jEEEaSERKSH_
1021:__ZN4core8hash_setINS_4pairIKNS_12basic_stringIcNS_20StringStorageDefaultIcEEEEjLb1EEENS_9hash_pairINS_4hashIS5_EES6_jEENS_10equal_pairINSt3__28equal_toIS5_EES6_jEEE11rehash_copyEjPNSH_4nodeE10MemLabelIdjPKSI_
1022:__ZN7XRStats18RegisterStatSourceEPv
1023:__ZN4core8hash_mapIPvNS0_INS_12basic_stringIcNS_20StringStorageDefaultIcEEEEjNS_4hashIS5_EENSt3__28equal_toIS5_EEEENS6_IS1_EENS9_IS1_EEE15insert_internalIRKS1_RKSB_EENS_4pairINS_8hash_setINSK_ISG_SB_Lb1EEENS_9hash_pairISC_SG_SB_EENS_10equal_pairISD_SG_SB_EEE13node_iteratorISM_EEbLb0EEEOT_OT0_
1024:__ZN13RuntimeStaticI17XREngineCallbacksLb0EE16StaticInitializeEPv
1025:__ZN13RuntimeStaticI9XRPreInitLb0EE16StaticInitializeEPv
1026:__ZN24StaticInitializeInternal13ConstructTypeI9XRPreInitLb0EEEPvS2_10MemLabelId
1027:__ZN9XRPreInitC2Ev
1028:__ZZN9XRPreInitC1EvEN41beforeInitializeEngineGraphicsRegistrator7ForwardEv
1029:__ZN9XRPreInit10InitializeEv
1030:__ZL28ThunkRegisterPreInitProviderP22UnityXRPreInitProvider
1031:__ZN9XRPreInitD2Ev
1032:__ZN9XRPreInitD0Ev
1033:__ZNK9XRPreInit15GetPreInitFlagsEPy
1034:__ZNK9XRPreInit20GetGraphicsAdapterIdE22UnityXRPreInitRendereryPy
1035:__ZNK9XRPreInit27GetVulkanInstanceExtensionsEjPjPc
1036:__ZNK9XRPreInit25GetVulkanDeviceExtensionsEjPjPc
1037:__ZN13RuntimeStaticI7XRAudioLb0EE16StaticInitializeEPv
1038:__ZN24StaticInitializeInternal13ConstructTypeI7XRAudioLb0EEEPvS2_10MemLabelId
1039:__ZN7XRAudioC2Ev
1040:__ZZN7XRAudioC1EvEN36audioConfigurationChangedRegistrator7ForwardEv
1041:__ZL18Internal_SetOutputPKv
1042:__ZL17Internal_SetInputPKv
1043:__ZN7XRAudio25AudioConfigurationChangedEv
1044:__ZN13RuntimeStaticI13IVRDeviceShimLb0EE16StaticInitializeEPv
1045:__ZN24StaticInitializeInternal13ConstructTypeI13IVRDeviceShimLb0EEEPvS2_10MemLabelId
1046:__ZN9Scripting11UnityEngine2XRL45__ManagedRegistrationHelperFunction_BoneProxyEPv
1047:__ZN9Scripting11UnityEngine2XRL45__ManagedRegistrationHelperFunction_EyesProxyEPv
1048:__ZN9Scripting11UnityEngine2XRL45__ManagedRegistrationHelperFunction_HandProxyEPv
1049:__ZN9Scripting11UnityEngine2XRL52__ManagedRegistrationHelperFunction_InputDeviceProxyEPv
1050:__ZN9Scripting11UnityEngine2XRL53__ManagedRegistrationHelperFunction_InputDevicesProxyEPv
1051:__ZN9Scripting11UnityEngine2XRL58__ManagedRegistrationHelperFunction_InputFeatureUsageProxyEPv
1052:__ZN9Scripting11UnityEngine2XRL54__ManagedRegistrationHelperFunction_InputTrackingProxyEPv
1053:__ZN9Scripting11UnityEngine2XRL56__ManagedRegistrationHelperFunction_MeshChangeStateProxyEPv
1054:__ZN9Scripting11UnityEngine2XRL61__ManagedRegistrationHelperFunction_MeshGenerationResultProxyEPv
1055:__ZN9Scripting11UnityEngine2XRL61__ManagedRegistrationHelperFunction_MeshGenerationStatusProxyEPv
1056:__ZN9Scripting11UnityEngine2XRL47__ManagedRegistrationHelperFunction_MeshIdProxyEPv
1057:__ZN9Scripting11UnityEngine2XRL49__ManagedRegistrationHelperFunction_MeshInfoProxyEPv
1058:__ZN9Scripting11UnityEngine2XRL61__ManagedRegistrationHelperFunction_MeshVertexAttributesProxyEPv
1059:__ZN9Scripting11UnityEngine2XRL59__ManagedRegistrationHelperFunction_XRDisplaySubsystemProxyEPv
1060:__ZN9Scripting11UnityEngine2XRL69__ManagedRegistrationHelperFunction_XRDisplaySubsystemDescriptorProxyEPv
1061:__ZN9Scripting11UnityEngine2XRL57__ManagedRegistrationHelperFunction_XRInputSubsystemProxyEPv
1062:__ZN9Scripting11UnityEngine2XRL67__ManagedRegistrationHelperFunction_XRInputSubsystemDescriptorProxyEPv
1063:__ZN9Scripting11UnityEngine2XRL56__ManagedRegistrationHelperFunction_XRMeshSubsystemProxyEPv
1064:__ZN9Scripting11UnityEngine2XRL66__ManagedRegistrationHelperFunction_XRMeshSubsystemDescriptorProxyEPv
1065:__ZN9Scripting11UnityEngine2XRL52__ManagedRegistrationHelperFunction_XRNodeStateProxyEPv
1066:__ZN9Scripting11UnityEngine2XR16XRNodeStateProxy9InitProxyEv
1067:__ZN9Scripting11UnityEngine2XR16XRNodeStateProxy12CleanupProxyEv
1068:__ZN9Scripting11UnityEngine2XR30XRMeshSubsystemDescriptorProxy9InitProxyEv
1069:__ZN9Scripting11UnityEngine2XR30XRMeshSubsystemDescriptorProxy12CleanupProxyEv
1070:__ZN9Scripting11UnityEngine2XR20XRMeshSubsystemProxy9InitProxyEv
1071:__ZN9Scripting11UnityEngine2XR20XRMeshSubsystemProxy12CleanupProxyEv
1072:__ZN9Scripting11UnityEngine2XR31XRInputSubsystemDescriptorProxy9InitProxyEv
1073:__ZN9Scripting11UnityEngine2XR31XRInputSubsystemDescriptorProxy12CleanupProxyEv
1074:__ZN9Scripting11UnityEngine2XR21XRInputSubsystemProxy9InitProxyEv
1075:__ZN9Scripting11UnityEngine2XR21XRInputSubsystemProxy12CleanupProxyEv
1076:__ZN9Scripting11UnityEngine2XR33XRDisplaySubsystemDescriptorProxy9InitProxyEv
1077:__ZN9Scripting11UnityEngine2XR33XRDisplaySubsystemDescriptorProxy12CleanupProxyEv
1078:__ZN9Scripting11UnityEngine2XR23XRDisplaySubsystemProxy9InitProxyEv
1079:__ZN9Scripting11UnityEngine2XR23XRDisplaySubsystemProxy12CleanupProxyEv
1080:__ZN9Scripting11UnityEngine2XR25MeshVertexAttributesProxy9InitProxyEv
1081:__ZN9Scripting11UnityEngine2XR25MeshVertexAttributesProxy12CleanupProxyEv
1082:__ZN9Scripting11UnityEngine2XR13MeshInfoProxy9InitProxyEv
1083:__ZN9Scripting11UnityEngine2XR13MeshInfoProxy12CleanupProxyEv
1084:__ZN9Scripting11UnityEngine2XR11MeshIdProxy9InitProxyEv
1085:__ZN9Scripting11UnityEngine2XR11MeshIdProxy12CleanupProxyEv
1086:__ZN9Scripting11UnityEngine2XR25MeshGenerationStatusProxy9InitProxyEv
1087:__ZN9Scripting11UnityEngine2XR25MeshGenerationStatusProxy12CleanupProxyEv
1088:__ZN9Scripting11UnityEngine2XR25MeshGenerationResultProxy9InitProxyEv
1089:__ZN9Scripting11UnityEngine2XR25MeshGenerationResultProxy12CleanupProxyEv
1090:__ZN9Scripting11UnityEngine2XR20MeshChangeStateProxy9InitProxyEv
1091:__ZN9Scripting11UnityEngine2XR20MeshChangeStateProxy12CleanupProxyEv
1092:__ZN9Scripting11UnityEngine2XR18InputTrackingProxy9InitProxyEv
1093:__ZN9Scripting11UnityEngine2XR18InputTrackingProxy12CleanupProxyEv
1094:__ZN9Scripting11UnityEngine2XR22InputFeatureUsageProxy9InitProxyEv
1095:__ZN9Scripting11UnityEngine2XR22InputFeatureUsageProxy12CleanupProxyEv
1096:__ZN9Scripting11UnityEngine2XR17InputDevicesProxy9InitProxyEv
1097:__ZN9Scripting11UnityEngine2XR17InputDevicesProxy12CleanupProxyEv
1098:__ZN9Scripting11UnityEngine2XR16InputDeviceProxy9InitProxyEv
1099:__ZN9Scripting11UnityEngine2XR16InputDeviceProxy12CleanupProxyEv
1100:__ZN9Scripting11UnityEngine2XR9HandProxy9InitProxyEv
1101:__ZN9Scripting11UnityEngine2XR9HandProxy12CleanupProxyEv
1102:__ZN9Scripting11UnityEngine2XR9EyesProxy9InitProxyEv
1103:__ZN9Scripting11UnityEngine2XR9EyesProxy12CleanupProxyEv
1104:__ZN9Scripting11UnityEngine2XR9BoneProxy9InitProxyEv
1105:__ZN9Scripting11UnityEngine2XR9BoneProxy12CleanupProxyEv
1106:__ZN23XRInputSubsystemManager16UnregisterDeviceEPK13XRInputDevice
1107:__ZN23XRInputSubsystemManager14RegisterDeviceEPK13XRInputDevice
1108:__GLOBAL__sub_I_External_il2cpp_builds_external_baselib_Platforms_WebGL_Source_0_cpp
1109:___clang_call_terminate
1110:__GLOBAL__sub_I_Lump_libil2cpp_os_cpp
1111:___cxx_global_var_init_89_44922
1112:___cxx_global_var_init_90
1113:___cxx_global_var_init_111
1114:__ZN7baselib14il2cpp_baselib13ReentrantLockC2Ev
1115:__ZL30Baselib_CappedSemaphore_Createt
1116:__ZL31Baselib_CappedSemaphore_ReleaseP23Baselib_CappedSemaphoret
1117:__ZN6il2cpp2os26LibraryNamePrefixAndSuffixC2EPKcS3_
1118:__GLOBAL__sub_I_Lump_libil2cpp_icalls_cpp
1119:__ZN6il2cpp5utils11StringUtils4HashIcEEmPKT_
1120:__ZN30dense_hashtable_const_iteratorINSt3__24pairIK10KeyWrapperIPK39___Il2CppMetadataGenericParameterHandleEP11Il2CppClassEES6_N6il2cpp5utils15PassThroughHashIS5_EEN14dense_hash_mapIS6_S9_SE_NS6_14EqualsComparerINS0_8equal_toIS5_EEEENS0_9allocatorISA_EEE9SelectKeyESJ_SL_EC2EPK15dense_hashtableISA_S6_SE_SN_SJ_SL_EPKSA_SU_b
1121:__ZNSt3__24pairIK10KeyWrapperIPK39___Il2CppMetadataGenericParameterHandleEP11Il2CppClassEC2ERKS9_
1122:__ZNK15dense_hashtableINSt3__24pairIK10KeyWrapperIPK39___Il2CppMetadataGenericParameterHandleEP11Il2CppClassEES6_N6il2cpp5utils15PassThroughHashIS5_EEN14dense_hash_mapIS6_S9_SE_NS6_14EqualsComparerINS0_8equal_toIS5_EEEENS0_9allocatorISA_EEE9SelectKeyESJ_SL_E12test_deletedERK30dense_hashtable_const_iteratorISA_S6_SE_SN_SJ_SL_E
1123:__ZN30dense_hashtable_const_iteratorINSt3__24pairIK10KeyWrapperIPK39___Il2CppMetadataGenericParameterHandleEP11Il2CppClassEES6_N6il2cpp5utils15PassThroughHashIS5_EEN14dense_hash_mapIS6_S9_SE_NS6_14EqualsComparerINS0_8equal_toIS5_EEEENS0_9allocatorISA_EEE9SelectKeyESJ_SL_E30advance_past_empty_and_deletedEv
1124:__ZNK15dense_hashtableINSt3__24pairIK10KeyWrapperIPK39___Il2CppMetadataGenericParameterHandleEP11Il2CppClassEES6_N6il2cpp5utils15PassThroughHashIS5_EEN14dense_hash_mapIS6_S9_SE_NS6_14EqualsComparerINS0_8equal_toIS5_EEEENS0_9allocatorISA_EEE9SelectKeyESJ_SL_E10test_emptyEm
1125:__ZNK15dense_hashtableINSt3__24pairIK10KeyWrapperIPK39___Il2CppMetadataGenericParameterHandleEP11Il2CppClassEES6_N6il2cpp5utils15PassThroughHashIS5_EEN14dense_hash_mapIS6_S9_SE_NS6_14EqualsComparerINS0_8equal_toIS5_EEEENS0_9allocatorISA_EEE9SelectKeyESJ_SL_E8min_sizeEmm
1126:__ZN15dense_hashtableINSt3__24pairIK10KeyWrapperIPK39___Il2CppMetadataGenericParameterHandleEP11Il2CppClassEES6_N6il2cpp5utils15PassThroughHashIS5_EEN14dense_hash_mapIS6_S9_SE_NS6_14EqualsComparerINS0_8equal_toIS5_EEEENS0_9allocatorISA_EEE9SelectKeyESJ_SL_EC2ERKSO_m
1127:__ZN15dense_hashtableINSt3__24pairIK10KeyWrapperIPK39___Il2CppMetadataGenericParameterHandleEP11Il2CppClassEES6_N6il2cpp5utils15PassThroughHashIS5_EEN14dense_hash_mapIS6_S9_SE_NS6_14EqualsComparerINS0_8equal_toIS5_EEEENS0_9allocatorISA_EEE9SelectKeyESJ_SL_E4swapERSO_
1128:__ZN15dense_hashtableINSt3__24pairIK10KeyWrapperIPK39___Il2CppMetadataGenericParameterHandleEP11Il2CppClassEES6_N6il2cpp5utils15PassThroughHashIS5_EEN14dense_hash_mapIS6_S9_SE_NS6_14EqualsComparerINS0_8equal_toIS5_EEEENS0_9allocatorISA_EEE9SelectKeyESJ_SL_ED2Ev
1129:__ZN15dense_hashtableINSt3__24pairIK10KeyWrapperIPK39___Il2CppMetadataGenericParameterHandleEP11Il2CppClassEES6_N6il2cpp5utils15PassThroughHashIS5_EEN14dense_hash_mapIS6_S9_SE_NS6_14EqualsComparerINS0_8equal_toIS5_EEEENS0_9allocatorISA_EEE9SelectKeyESJ_SL_E9copy_fromERKSO_m
1130:__ZN15dense_hashtableINSt3__24pairIK10KeyWrapperIPK39___Il2CppMetadataGenericParameterHandleEP11Il2CppClassEES6_N6il2cpp5utils15PassThroughHashIS5_EEN14dense_hash_mapIS6_S9_SE_NS6_14EqualsComparerINS0_8equal_toIS5_EEEENS0_9allocatorISA_EEE9SelectKeyESJ_SL_E5clearEv
1131:__ZN15dense_hashtableINSt3__24pairIK10KeyWrapperIPK39___Il2CppMetadataGenericParameterHandleEP11Il2CppClassEES6_N6il2cpp5utils15PassThroughHashIS5_EEN14dense_hash_mapIS6_S9_SE_NS6_14EqualsComparerINS0_8equal_toIS5_EEEENS0_9allocatorISA_EEE9SelectKeyESJ_SL_E12expand_arrayEmN21dense_hash_map_traits17integral_constantIbLb0EEE
1132:__ZNSt3__218uninitialized_copyIPNS_4pairIK10KeyWrapperIPK39___Il2CppMetadataGenericParameterHandleEP11Il2CppClassEESB_EET0_T_SD_SC_
1133:__ZN15dense_hashtableINSt3__24pairIK10KeyWrapperIPK39___Il2CppMetadataGenericParameterHandleEP11Il2CppClassEES6_N6il2cpp5utils15PassThroughHashIS5_EEN14dense_hash_mapIS6_S9_SE_NS6_14EqualsComparerINS0_8equal_toIS5_EEEENS0_9allocatorISA_EEE9SelectKeyESJ_SL_E21fill_range_with_emptyEPSA_SP_
1134:__ZNSt3__218uninitialized_fillIPNS_4pairIK10KeyWrapperIPK39___Il2CppMetadataGenericParameterHandleEP11Il2CppClassEESA_EEvT_SC_RKT0_
1135:__ZN30dense_hashtable_const_iteratorI10KeyWrapperIPK19Il2CppGenericMethodES4_N6il2cpp8metadata23Il2CppGenericMethodHashEN14dense_hash_setIS4_S7_NS4_14EqualsComparerINS6_26Il2CppGenericMethodCompareEEENSt3__29allocatorIS4_EEE8IdentityESB_SE_EC2EPK15dense_hashtableIS4_S4_S7_SG_SB_SE_EPKS4_SN_b
1136:__ZNK15dense_hashtableI10KeyWrapperIPK19Il2CppGenericMethodES4_N6il2cpp8metadata23Il2CppGenericMethodHashEN14dense_hash_setIS4_S7_NS4_14EqualsComparerINS6_26Il2CppGenericMethodCompareEEENSt3__29allocatorIS4_EEE8IdentityESB_SE_E12test_deletedERK30dense_hashtable_const_iteratorIS4_S4_S7_SG_SB_SE_E
1137:__ZNK10KeyWrapperIPK19Il2CppGenericMethodE14EqualsComparerIN6il2cpp8metadata26Il2CppGenericMethodCompareEEclERKS3_SA_
1138:__ZN30dense_hashtable_const_iteratorI10KeyWrapperIPK19Il2CppGenericMethodES4_N6il2cpp8metadata23Il2CppGenericMethodHashEN14dense_hash_setIS4_S7_NS4_14EqualsComparerINS6_26Il2CppGenericMethodCompareEEENSt3__29allocatorIS4_EEE8IdentityESB_SE_E30advance_past_empty_and_deletedEv
1139:__ZN15dense_hashtableI10KeyWrapperIPK19Il2CppGenericMethodES4_N6il2cpp8metadata23Il2CppGenericMethodHashEN14dense_hash_setIS4_S7_NS4_14EqualsComparerINS6_26Il2CppGenericMethodCompareEEENSt3__29allocatorIS4_EEE8IdentityESB_SE_EC2ERKSH_m
1140:__ZN15dense_hashtableI10KeyWrapperIPK19Il2CppGenericMethodES4_N6il2cpp8metadata23Il2CppGenericMethodHashEN14dense_hash_setIS4_S7_NS4_14EqualsComparerINS6_26Il2CppGenericMethodCompareEEENSt3__29allocatorIS4_EEE8IdentityESB_SE_E4swapERSH_
1141:__ZN15dense_hashtableI10KeyWrapperIPK19Il2CppGenericMethodES4_N6il2cpp8metadata23Il2CppGenericMethodHashEN14dense_hash_setIS4_S7_NS4_14EqualsComparerINS6_26Il2CppGenericMethodCompareEEENSt3__29allocatorIS4_EEE8IdentityESB_SE_ED2Ev
1142:__ZN15dense_hashtableI10KeyWrapperIPK19Il2CppGenericMethodES4_N6il2cpp8metadata23Il2CppGenericMethodHashEN14dense_hash_setIS4_S7_NS4_14EqualsComparerINS6_26Il2CppGenericMethodCompareEEENSt3__29allocatorIS4_EEE8IdentityESB_SE_E9copy_fromERKSH_m
1143:__ZN15dense_hashtableI10KeyWrapperIPK19Il2CppGenericMethodES4_N6il2cpp8metadata23Il2CppGenericMethodHashEN14dense_hash_setIS4_S7_NS4_14EqualsComparerINS6_26Il2CppGenericMethodCompareEEENSt3__29allocatorIS4_EEE8IdentityESB_SE_E5clearEv
1144:__ZN15dense_hashtableI10KeyWrapperIPK19Il2CppGenericMethodES4_N6il2cpp8metadata23Il2CppGenericMethodHashEN14dense_hash_setIS4_S7_NS4_14EqualsComparerINS6_26Il2CppGenericMethodCompareEEENSt3__29allocatorIS4_EEE8IdentityESB_SE_E12expand_arrayEmN21dense_hash_map_traits17integral_constantIbLb0EEE
1145:__ZNSt3__218uninitialized_copyIP10KeyWrapperIPK19Il2CppGenericMethodES6_EET0_T_S8_S7_
1146:__ZN15dense_hashtableI10KeyWrapperIPK19Il2CppGenericMethodES4_N6il2cpp8metadata23Il2CppGenericMethodHashEN14dense_hash_setIS4_S7_NS4_14EqualsComparerINS6_26Il2CppGenericMethodCompareEEENSt3__29allocatorIS4_EEE8IdentityESB_SE_E21fill_range_with_emptyEPS4_SI_
1147:__ZNSt3__218uninitialized_fillIP10KeyWrapperIPK19Il2CppGenericMethodES5_EEvT_S7_RKT0_
1148:__ZN15dense_hashtableINSt3__24pairIK10KeyWrapperIP9FieldInfoEiEES5_N6il2cpp5utils11PointerHashIS3_EEN14dense_hash_mapIS5_iSB_NS5_14EqualsComparerINS0_8equal_toIS4_EEEENS0_9allocatorIS7_EEE9SelectKeyESG_SI_EC2ERKSL_m
1149:__ZN15dense_hashtableINSt3__24pairIK10KeyWrapperIP9FieldInfoEiEES5_N6il2cpp5utils11PointerHashIS3_EEN14dense_hash_mapIS5_iSB_NS5_14EqualsComparerINS0_8equal_toIS4_EEEENS0_9allocatorIS7_EEE9SelectKeyESG_SI_E9copy_fromERKSL_m
1150:__ZN15dense_hashtableINSt3__24pairIK10KeyWrapperIP9FieldInfoEiEES5_N6il2cpp5utils11PointerHashIS3_EEN14dense_hash_mapIS5_iSB_NS5_14EqualsComparerINS0_8equal_toIS4_EEEENS0_9allocatorIS7_EEE9SelectKeyESG_SI_E5clearEv
1151:__ZN15dense_hashtableINSt3__24pairIK10KeyWrapperIP9FieldInfoEiEES5_N6il2cpp5utils11PointerHashIS3_EEN14dense_hash_mapIS5_iSB_NS5_14EqualsComparerINS0_8equal_toIS4_EEEENS0_9allocatorIS7_EEE9SelectKeyESG_SI_E12expand_arrayEmN21dense_hash_map_traits17integral_constantIbLb0EEE
1152:__ZNSt3__218uninitialized_copyIPNS_4pairIK10KeyWrapperIP9FieldInfoEiEES8_EET0_T_SA_S9_
1153:__ZN15dense_hashtableINSt3__24pairIK10KeyWrapperIP9FieldInfoEiEES5_N6il2cpp5utils11PointerHashIS3_EEN14dense_hash_mapIS5_iSB_NS5_14EqualsComparerINS0_8equal_toIS4_EEEENS0_9allocatorIS7_EEE9SelectKeyESG_SI_E21fill_range_with_emptyEPS7_SM_
1154:__ZNSt3__218uninitialized_fillIPNS_4pairIK10KeyWrapperIP9FieldInfoEiEES7_EEvT_S9_RKT0_
1155:__GLOBAL__sub_I_Lump_libil2cpp_vm_cpp
1156:___cxx_global_var_init_25
1157:___cxx_global_var_init_93
1158:___cxx_global_var_init_95
1159:___cxx_global_var_init_96
1160:___cxx_global_var_init_97
1161:___cxx_global_var_init_98
1162:___cxx_global_var_init_99
1163:___cxx_global_var_init_111_46220
1164:___cxx_global_var_init_128_46222
1165:___cxx_global_var_init_148
1166:__ZN13Il2CppHashMapIP14Il2CppIUnknownjN6il2cpp5utils11PointerHashIS0_EENSt3__28equal_toIS1_EENS6_9allocatorINS6_4pairIK10KeyWrapperIS1_EjEEEEEC2EmRKS5_RKS8_
1167:__ZN14dense_hash_mapI10KeyWrapperIP14Il2CppIUnknownEjN6il2cpp5utils11PointerHashIS1_EENS3_14EqualsComparerINSt3__28equal_toIS2_EEEENS9_9allocatorINS9_4pairIKS3_jEEEEE13set_empty_keyERSF_
1168:__ZN14dense_hash_mapI10KeyWrapperIP14Il2CppIUnknownEjN6il2cpp5utils11PointerHashIS1_EENS3_14EqualsComparerINSt3__28equal_toIS2_EEEENS9_9allocatorINS9_4pairIKS3_jEEEEE15set_deleted_keyERSF_
1169:__ZN15dense_hashtableINSt3__24pairIK10KeyWrapperIP14Il2CppIUnknownEjEES5_N6il2cpp5utils11PointerHashIS3_EEN14dense_hash_mapIS5_jSB_NS5_14EqualsComparerINS0_8equal_toIS4_EEEENS0_9allocatorIS7_EEE9SelectKeyESG_SI_E14squash_deletedEv
1170:__ZN15dense_hashtableINSt3__24pairIK10KeyWrapperIP14Il2CppIUnknownEjEES5_N6il2cpp5utils11PointerHashIS3_EEN14dense_hash_mapIS5_jSB_NS5_14EqualsComparerINS0_8equal_toIS4_EEEENS0_9allocatorIS7_EEE9SelectKeyESG_SI_EC2ERKSL_m
1171:__ZN15dense_hashtableINSt3__24pairIK10KeyWrapperIP14Il2CppIUnknownEjEES5_N6il2cpp5utils11PointerHashIS3_EEN14dense_hash_mapIS5_jSB_NS5_14EqualsComparerINS0_8equal_toIS4_EEEENS0_9allocatorIS7_EEE9SelectKeyESG_SI_E9copy_fromERKSL_m
1172:__ZN15dense_hashtableINSt3__24pairIK10KeyWrapperIP14Il2CppIUnknownEjEES5_N6il2cpp5utils11PointerHashIS3_EEN14dense_hash_mapIS5_jSB_NS5_14EqualsComparerINS0_8equal_toIS4_EEEENS0_9allocatorIS7_EEE9SelectKeyESG_SI_E5clearEv
1173:__ZN15dense_hashtableINSt3__24pairIK10KeyWrapperIP14Il2CppIUnknownEjEES5_N6il2cpp5utils11PointerHashIS3_EEN14dense_hash_mapIS5_jSB_NS5_14EqualsComparerINS0_8equal_toIS4_EEEENS0_9allocatorIS7_EEE9SelectKeyESG_SI_E12expand_arrayEmN21dense_hash_map_traits17integral_constantIbLb0EEE
1174:__ZNSt3__218uninitialized_copyIPNS_4pairIK10KeyWrapperIP14Il2CppIUnknownEjEES8_EET0_T_SA_S9_
1175:__ZN15dense_hashtableINSt3__24pairIK10KeyWrapperIP14Il2CppIUnknownEjEES5_N6il2cpp5utils11PointerHashIS3_EEN14dense_hash_mapIS5_jSB_NS5_14EqualsComparerINS0_8equal_toIS4_EEEENS0_9allocatorIS7_EEE9SelectKeyESG_SI_E21fill_range_with_emptyEPS7_SM_
1176:__ZNSt3__218uninitialized_fillIPNS_4pairIK10KeyWrapperIP14Il2CppIUnknownEjEES7_EEvT_S9_RKT0_
1177:__ZN15dense_hashtableINSt3__24pairIK10KeyWrapperIP14Il2CppIUnknownEjEES5_N6il2cpp5utils11PointerHashIS3_EEN14dense_hash_mapIS5_jSB_NS5_14EqualsComparerINS0_8equal_toIS4_EEEENS0_9allocatorIS7_EEE9SelectKeyESG_SI_E13set_empty_keyERKS7_
1178:__ZN15dense_hashtableINSt3__24pairIK10KeyWrapperIP14Il2CppIUnknownEjEES5_N6il2cpp5utils11PointerHashIS3_EEN14dense_hash_mapIS5_jSB_NS5_14EqualsComparerINS0_8equal_toIS4_EEEENS0_9allocatorIS7_EEE9SelectKeyESG_SI_EC2EmRKSB_RKSG_RKSK_
1179:__ZN13Il2CppHashMapIPK11Il2CppClassPKcN6il2cpp5utils11PointerHashIS0_EENSt3__28equal_toIS2_EENS9_9allocatorINS9_4pairIK10KeyWrapperIS2_ES4_EEEEEC2EmRKS8_RKSB_
1180:__ZN14dense_hash_mapI10KeyWrapperIPK11Il2CppClassEPKcN6il2cpp5utils11PointerHashIS1_EENS4_14EqualsComparerINSt3__28equal_toIS3_EEEENSC_9allocatorINSC_4pairIKS4_S6_EEEEE13set_empty_keyERSI_
1181:__ZN14dense_hash_mapI10KeyWrapperIPK11Il2CppClassEPKcN6il2cpp5utils11PointerHashIS1_EENS4_14EqualsComparerINSt3__28equal_toIS3_EEEENSC_9allocatorINSC_4pairIKS4_S6_EEEEE15set_deleted_keyERSI_
1182:__ZN15dense_hashtableINSt3__24pairIK10KeyWrapperIPK11Il2CppClassEPKcEES6_N6il2cpp5utils11PointerHashIS3_EEN14dense_hash_mapIS6_S9_SE_NS6_14EqualsComparerINS0_8equal_toIS5_EEEENS0_9allocatorISA_EEE9SelectKeyESJ_SL_E14squash_deletedEv
1183:__ZN15dense_hashtableINSt3__24pairIK10KeyWrapperIPK11Il2CppClassEPKcEES6_N6il2cpp5utils11PointerHashIS3_EEN14dense_hash_mapIS6_S9_SE_NS6_14EqualsComparerINS0_8equal_toIS5_EEEENS0_9allocatorISA_EEE9SelectKeyESJ_SL_EC2ERKSO_m
1184:__ZN15dense_hashtableINSt3__24pairIK10KeyWrapperIPK11Il2CppClassEPKcEES6_N6il2cpp5utils11PointerHashIS3_EEN14dense_hash_mapIS6_S9_SE_NS6_14EqualsComparerINS0_8equal_toIS5_EEEENS0_9allocatorISA_EEE9SelectKeyESJ_SL_E9copy_fromERKSO_m
1185:__ZN15dense_hashtableINSt3__24pairIK10KeyWrapperIPK11Il2CppClassEPKcEES6_N6il2cpp5utils11PointerHashIS3_EEN14dense_hash_mapIS6_S9_SE_NS6_14EqualsComparerINS0_8equal_toIS5_EEEENS0_9allocatorISA_EEE9SelectKeyESJ_SL_E5clearEv
1186:__ZN15dense_hashtableINSt3__24pairIK10KeyWrapperIPK11Il2CppClassEPKcEES6_N6il2cpp5utils11PointerHashIS3_EEN14dense_hash_mapIS6_S9_SE_NS6_14EqualsComparerINS0_8equal_toIS5_EEEENS0_9allocatorISA_EEE9SelectKeyESJ_SL_E12expand_arrayEmN21dense_hash_map_traits17integral_constantIbLb0EEE
1187:__ZNSt3__218uninitialized_copyIPNS_4pairIK10KeyWrapperIPK11Il2CppClassEPKcEESB_EET0_T_SD_SC_
1188:__ZN15dense_hashtableINSt3__24pairIK10KeyWrapperIPK11Il2CppClassEPKcEES6_N6il2cpp5utils11PointerHashIS3_EEN14dense_hash_mapIS6_S9_SE_NS6_14EqualsComparerINS0_8equal_toIS5_EEEENS0_9allocatorISA_EEE9SelectKeyESJ_SL_E21fill_range_with_emptyEPSA_SP_
1189:__ZNSt3__218uninitialized_fillIPNS_4pairIK10KeyWrapperIPK11Il2CppClassEPKcEESA_EEvT_SC_RKT0_
1190:__ZN15dense_hashtableINSt3__24pairIK10KeyWrapperIPK11Il2CppClassEPKcEES6_N6il2cpp5utils11PointerHashIS3_EEN14dense_hash_mapIS6_S9_SE_NS6_14EqualsComparerINS0_8equal_toIS5_EEEENS0_9allocatorISA_EEE9SelectKeyESJ_SL_E13set_empty_keyERKSA_
1191:__ZN13Il2CppHashMapIPKcP11Il2CppClassN6il2cpp5utils11StringUtils12StringHasherIS1_EENS5_13VmStringUtils21CaseSensitiveComparerENSt3__29allocatorINSB_4pairIK10KeyWrapperIS1_ES3_EEEEEC2EmRKS8_RKSA_
1192:__ZN14dense_hash_mapI10KeyWrapperIPKcEP11Il2CppClassN6il2cpp5utils11StringUtils12StringHasherIS2_EENS3_14EqualsComparerINS7_13VmStringUtils21CaseSensitiveComparerEEENSt3__29allocatorINSF_4pairIKS3_S5_EEEEE13set_empty_keyERSI_
1193:__ZN14dense_hash_mapI10KeyWrapperIPKcEP11Il2CppClassN6il2cpp5utils11StringUtils12StringHasherIS2_EENS3_14EqualsComparerINS7_13VmStringUtils21CaseSensitiveComparerEEENSt3__29allocatorINSF_4pairIKS3_S5_EEEEE15set_deleted_keyERSI_
1194:__ZN15dense_hashtableINSt3__24pairIK10KeyWrapperIPKcEP11Il2CppClassEES5_N6il2cpp5utils11StringUtils12StringHasherIS4_EEN14dense_hash_mapIS5_S8_SE_NS5_14EqualsComparerINSB_13VmStringUtils21CaseSensitiveComparerEEENS0_9allocatorIS9_EEE9SelectKeyESJ_SL_E14squash_deletedEv
1195:__ZN15dense_hashtableINSt3__24pairIK10KeyWrapperIPKcEP11Il2CppClassEES5_N6il2cpp5utils11StringUtils12StringHasherIS4_EEN14dense_hash_mapIS5_S8_SE_NS5_14EqualsComparerINSB_13VmStringUtils21CaseSensitiveComparerEEENS0_9allocatorIS9_EEE9SelectKeyESJ_SL_EC2ERKSO_m
1196:__ZN15dense_hashtableINSt3__24pairIK10KeyWrapperIPKcEP11Il2CppClassEES5_N6il2cpp5utils11StringUtils12StringHasherIS4_EEN14dense_hash_mapIS5_S8_SE_NS5_14EqualsComparerINSB_13VmStringUtils21CaseSensitiveComparerEEENS0_9allocatorIS9_EEE9SelectKeyESJ_SL_E9copy_fromERKSO_m
1197:__ZN15dense_hashtableINSt3__24pairIK10KeyWrapperIPKcEP11Il2CppClassEES5_N6il2cpp5utils11StringUtils12StringHasherIS4_EEN14dense_hash_mapIS5_S8_SE_NS5_14EqualsComparerINSB_13VmStringUtils21CaseSensitiveComparerEEENS0_9allocatorIS9_EEE9SelectKeyESJ_SL_E5clearEv
1198:__ZN15dense_hashtableINSt3__24pairIK10KeyWrapperIPKcEP11Il2CppClassEES5_N6il2cpp5utils11StringUtils12StringHasherIS4_EEN14dense_hash_mapIS5_S8_SE_NS5_14EqualsComparerINSB_13VmStringUtils21CaseSensitiveComparerEEENS0_9allocatorIS9_EEE9SelectKeyESJ_SL_E12expand_arrayEmN21dense_hash_map_traits17integral_constantIbLb0EEE
1199:__ZN30dense_hashtable_const_iteratorINSt3__24pairIK10KeyWrapperIPKcEP11Il2CppClassEES5_N6il2cpp5utils11StringUtils12StringHasherIS4_EEN14dense_hash_mapIS5_S8_SE_NS5_14EqualsComparerINSB_13VmStringUtils21CaseSensitiveComparerEEENS0_9allocatorIS9_EEE9SelectKeyESJ_SL_E30advance_past_empty_and_deletedEv
1200:__ZNK15dense_hashtableINSt3__24pairIK10KeyWrapperIPKcEP11Il2CppClassEES5_N6il2cpp5utils11StringUtils12StringHasherIS4_EEN14dense_hash_mapIS5_S8_SE_NS5_14EqualsComparerINSB_13VmStringUtils21CaseSensitiveComparerEEENS0_9allocatorIS9_EEE9SelectKeyESJ_SL_E12test_deletedERK30dense_hashtable_const_iteratorIS9_S5_SE_SN_SJ_SL_E
1201:__ZNK10KeyWrapperIPKcE14EqualsComparerIN6il2cpp5utils13VmStringUtils21CaseSensitiveComparerEEclERKS2_SA_
1202:__ZN30dense_hashtable_const_iteratorINSt3__24pairIK10KeyWrapperIPKcEP11Il2CppClassEES5_N6il2cpp5utils11StringUtils12StringHasherIS4_EEN14dense_hash_mapIS5_S8_SE_NS5_14EqualsComparerINSB_13VmStringUtils21CaseSensitiveComparerEEENS0_9allocatorIS9_EEE9SelectKeyESJ_SL_EC2EPK15dense_hashtableIS9_S5_SE_SN_SJ_SL_EPKS9_SU_b
1203:__ZNSt3__218uninitialized_copyIPNS_4pairIK10KeyWrapperIPKcEP11Il2CppClassEESA_EET0_T_SC_SB_
1204:__ZN15dense_hashtableINSt3__24pairIK10KeyWrapperIPKcEP11Il2CppClassEES5_N6il2cpp5utils11StringUtils12StringHasherIS4_EEN14dense_hash_mapIS5_S8_SE_NS5_14EqualsComparerINSB_13VmStringUtils21CaseSensitiveComparerEEENS0_9allocatorIS9_EEE9SelectKeyESJ_SL_E21fill_range_with_emptyEPS9_SP_
1205:__ZNSt3__218uninitialized_fillIPNS_4pairIK10KeyWrapperIPKcEP11Il2CppClassEES9_EEvT_SB_RKT0_
1206:__ZN15dense_hashtableINSt3__24pairIK10KeyWrapperIPKcEP11Il2CppClassEES5_N6il2cpp5utils11StringUtils12StringHasherIS4_EEN14dense_hash_mapIS5_S8_SE_NS5_14EqualsComparerINSB_13VmStringUtils21CaseSensitiveComparerEEENS0_9allocatorIS9_EEE9SelectKeyESJ_SL_E13set_empty_keyERKS9_
1207:__ZN13Il2CppHashMapIP9FieldInfoiN6il2cpp5utils11PointerHashIS0_EENSt3__28equal_toIS1_EENS6_9allocatorINS6_4pairIK10KeyWrapperIS1_EiEEEEEC2EmRKS5_RKS8_
1208:__ZN14dense_hash_mapI10KeyWrapperIP9FieldInfoEiN6il2cpp5utils11PointerHashIS1_EENS3_14EqualsComparerINSt3__28equal_toIS2_EEEENS9_9allocatorINS9_4pairIKS3_iEEEEE13set_empty_keyERSF_
1209:__ZN14dense_hash_mapI10KeyWrapperIP9FieldInfoEiN6il2cpp5utils11PointerHashIS1_EENS3_14EqualsComparerINSt3__28equal_toIS2_EEEENS9_9allocatorINS9_4pairIKS3_iEEEEE15set_deleted_keyERSF_
1210:__ZN15dense_hashtableINSt3__24pairIK10KeyWrapperIP9FieldInfoEiEES5_N6il2cpp5utils11PointerHashIS3_EEN14dense_hash_mapIS5_iSB_NS5_14EqualsComparerINS0_8equal_toIS4_EEEENS0_9allocatorIS7_EEE9SelectKeyESG_SI_E14squash_deletedEv
1211:__ZN15dense_hashtableINSt3__24pairIK10KeyWrapperIP9FieldInfoEiEES5_N6il2cpp5utils11PointerHashIS3_EEN14dense_hash_mapIS5_iSB_NS5_14EqualsComparerINS0_8equal_toIS4_EEEENS0_9allocatorIS7_EEE9SelectKeyESG_SI_E13set_empty_keyERKS7_
1212:__ZN13Il2CppHashMapIPK19Il2CppGenericMethodPK26Il2CppGenericMethodIndicesN6il2cpp8metadata23Il2CppGenericMethodHashENS7_26Il2CppGenericMethodCompareENSt3__29allocatorINSA_4pairIK10KeyWrapperIS2_ES5_EEEEEC2EmRKS8_RKS9_
1213:__ZN14dense_hash_mapI10KeyWrapperIPK19Il2CppGenericMethodEPK26Il2CppGenericMethodIndicesN6il2cpp8metadata23Il2CppGenericMethodHashENS4_14EqualsComparerINS9_26Il2CppGenericMethodCompareEEENSt3__29allocatorINSE_4pairIKS4_S7_EEEEE13set_empty_keyERSH_
1214:__ZN14dense_hash_mapI10KeyWrapperIPK19Il2CppGenericMethodEPK26Il2CppGenericMethodIndicesN6il2cpp8metadata23Il2CppGenericMethodHashENS4_14EqualsComparerINS9_26Il2CppGenericMethodCompareEEENSt3__29allocatorINSE_4pairIKS4_S7_EEEEE15set_deleted_keyERSH_
1215:__ZN15dense_hashtableINSt3__24pairIK10KeyWrapperIPK19Il2CppGenericMethodEPK26Il2CppGenericMethodIndicesEES6_N6il2cpp8metadata23Il2CppGenericMethodHashEN14dense_hash_mapIS6_SA_SE_NS6_14EqualsComparerINSD_26Il2CppGenericMethodCompareEEENS0_9allocatorISB_EEE9SelectKeyESI_SK_E14squash_deletedEv
1216:__ZN15dense_hashtableINSt3__24pairIK10KeyWrapperIPK19Il2CppGenericMethodEPK26Il2CppGenericMethodIndicesEES6_N6il2cpp8metadata23Il2CppGenericMethodHashEN14dense_hash_mapIS6_SA_SE_NS6_14EqualsComparerINSD_26Il2CppGenericMethodCompareEEENS0_9allocatorISB_EEE9SelectKeyESI_SK_EC2ERKSN_m
1217:__ZN15dense_hashtableINSt3__24pairIK10KeyWrapperIPK19Il2CppGenericMethodEPK26Il2CppGenericMethodIndicesEES6_N6il2cpp8metadata23Il2CppGenericMethodHashEN14dense_hash_mapIS6_SA_SE_NS6_14EqualsComparerINSD_26Il2CppGenericMethodCompareEEENS0_9allocatorISB_EEE9SelectKeyESI_SK_E9copy_fromERKSN_m
1218:__ZN15dense_hashtableINSt3__24pairIK10KeyWrapperIPK19Il2CppGenericMethodEPK26Il2CppGenericMethodIndicesEES6_N6il2cpp8metadata23Il2CppGenericMethodHashEN14dense_hash_mapIS6_SA_SE_NS6_14EqualsComparerINSD_26Il2CppGenericMethodCompareEEENS0_9allocatorISB_EEE9SelectKeyESI_SK_E5clearEv
1219:__ZN15dense_hashtableINSt3__24pairIK10KeyWrapperIPK19Il2CppGenericMethodEPK26Il2CppGenericMethodIndicesEES6_N6il2cpp8metadata23Il2CppGenericMethodHashEN14dense_hash_mapIS6_SA_SE_NS6_14EqualsComparerINSD_26Il2CppGenericMethodCompareEEENS0_9allocatorISB_EEE9SelectKeyESI_SK_E12expand_arrayEmN21dense_hash_map_traits17integral_constantIbLb0EEE
1220:__ZN30dense_hashtable_const_iteratorINSt3__24pairIK10KeyWrapperIPK19Il2CppGenericMethodEPK26Il2CppGenericMethodIndicesEES6_N6il2cpp8metadata23Il2CppGenericMethodHashEN14dense_hash_mapIS6_SA_SE_NS6_14EqualsComparerINSD_26Il2CppGenericMethodCompareEEENS0_9allocatorISB_EEE9SelectKeyESI_SK_E30advance_past_empty_and_deletedEv
1221:__ZN30dense_hashtable_const_iteratorINSt3__24pairIK10KeyWrapperIPK19Il2CppGenericMethodEPK26Il2CppGenericMethodIndicesEES6_N6il2cpp8metadata23Il2CppGenericMethodHashEN14dense_hash_mapIS6_SA_SE_NS6_14EqualsComparerINSD_26Il2CppGenericMethodCompareEEENS0_9allocatorISB_EEE9SelectKeyESI_SK_EC2EPK15dense_hashtableISB_S6_SE_SM_SI_SK_EPKSB_ST_b
1222:__ZNSt3__218uninitialized_copyIPNS_4pairIK10KeyWrapperIPK19Il2CppGenericMethodEPK26Il2CppGenericMethodIndicesEESC_EET0_T_SE_SD_
1223:__ZN15dense_hashtableINSt3__24pairIK10KeyWrapperIPK19Il2CppGenericMethodEPK26Il2CppGenericMethodIndicesEES6_N6il2cpp8metadata23Il2CppGenericMethodHashEN14dense_hash_mapIS6_SA_SE_NS6_14EqualsComparerINSD_26Il2CppGenericMethodCompareEEENS0_9allocatorISB_EEE9SelectKeyESI_SK_E21fill_range_with_emptyEPSB_SO_
1224:__ZNSt3__218uninitialized_fillIPNS_4pairIK10KeyWrapperIPK19Il2CppGenericMethodEPK26Il2CppGenericMethodIndicesEESB_EEvT_SD_RKT0_
1225:__ZN15dense_hashtableINSt3__24pairIK10KeyWrapperIPK19Il2CppGenericMethodEPK26Il2CppGenericMethodIndicesEES6_N6il2cpp8metadata23Il2CppGenericMethodHashEN14dense_hash_mapIS6_SA_SE_NS6_14EqualsComparerINSD_26Il2CppGenericMethodCompareEEENS0_9allocatorISB_EEE9SelectKeyESI_SK_E13set_empty_keyERKSB_
1226:__ZN13Il2CppHashSetIPK17Il2CppGenericInstN6il2cpp8metadata21Il2CppGenericInstHashENS4_24Il2CppGenericInstCompareENSt3__29allocatorI10KeyWrapperIS2_EEEEC2EmRKS5_RKS6_
1227:__ZN14dense_hash_setI10KeyWrapperIPK17Il2CppGenericInstEN6il2cpp8metadata21Il2CppGenericInstHashENS4_14EqualsComparerINS6_24Il2CppGenericInstCompareEEENSt3__29allocatorIS4_EEE13set_empty_keyERKS4_
1228:__ZN14dense_hash_setI10KeyWrapperIPK17Il2CppGenericInstEN6il2cpp8metadata21Il2CppGenericInstHashENS4_14EqualsComparerINS6_24Il2CppGenericInstCompareEEENSt3__29allocatorIS4_EEE15set_deleted_keyERKS4_
1229:__ZN15dense_hashtableI10KeyWrapperIPK17Il2CppGenericInstES4_N6il2cpp8metadata21Il2CppGenericInstHashEN14dense_hash_setIS4_S7_NS4_14EqualsComparerINS6_24Il2CppGenericInstCompareEEENSt3__29allocatorIS4_EEE8IdentityESB_SE_E14squash_deletedEv
1230:__ZN15dense_hashtableI10KeyWrapperIPK17Il2CppGenericInstES4_N6il2cpp8metadata21Il2CppGenericInstHashEN14dense_hash_setIS4_S7_NS4_14EqualsComparerINS6_24Il2CppGenericInstCompareEEENSt3__29allocatorIS4_EEE8IdentityESB_SE_EC2ERKSH_m
1231:__ZN15dense_hashtableI10KeyWrapperIPK17Il2CppGenericInstES4_N6il2cpp8metadata21Il2CppGenericInstHashEN14dense_hash_setIS4_S7_NS4_14EqualsComparerINS6_24Il2CppGenericInstCompareEEENSt3__29allocatorIS4_EEE8IdentityESB_SE_E9copy_fromERKSH_m
1232:__ZN30dense_hashtable_const_iteratorI10KeyWrapperIPK17Il2CppGenericInstES4_N6il2cpp8metadata21Il2CppGenericInstHashEN14dense_hash_setIS4_S7_NS4_14EqualsComparerINS6_24Il2CppGenericInstCompareEEENSt3__29allocatorIS4_EEE8IdentityESB_SE_E30advance_past_empty_and_deletedEv
1233:__ZNK15dense_hashtableI10KeyWrapperIPK17Il2CppGenericInstES4_N6il2cpp8metadata21Il2CppGenericInstHashEN14dense_hash_setIS4_S7_NS4_14EqualsComparerINS6_24Il2CppGenericInstCompareEEENSt3__29allocatorIS4_EEE8IdentityESB_SE_E12test_deletedERK30dense_hashtable_const_iteratorIS4_S4_S7_SG_SB_SE_E
1234:__ZNK10KeyWrapperIPK17Il2CppGenericInstE14EqualsComparerIN6il2cpp8metadata24Il2CppGenericInstCompareEEclERKS3_SA_
1235:__ZN30dense_hashtable_const_iteratorI10KeyWrapperIPK17Il2CppGenericInstES4_N6il2cpp8metadata21Il2CppGenericInstHashEN14dense_hash_setIS4_S7_NS4_14EqualsComparerINS6_24Il2CppGenericInstCompareEEENSt3__29allocatorIS4_EEE8IdentityESB_SE_EC2EPK15dense_hashtableIS4_S4_S7_SG_SB_SE_EPKS4_SN_b
1236:__ZN15dense_hashtableI10KeyWrapperIPK17Il2CppGenericInstES4_N6il2cpp8metadata21Il2CppGenericInstHashEN14dense_hash_setIS4_S7_NS4_14EqualsComparerINS6_24Il2CppGenericInstCompareEEENSt3__29allocatorIS4_EEE8IdentityESB_SE_E13set_empty_keyERKS4_
1237:__ZN15dense_hashtableI10KeyWrapperIPK17Il2CppGenericInstES4_N6il2cpp8metadata21Il2CppGenericInstHashEN14dense_hash_setIS4_S7_NS4_14EqualsComparerINS6_24Il2CppGenericInstCompareEEENSt3__29allocatorIS4_EEE8IdentityESB_SE_EC2EmRKS7_RKSB_RKSG_
1238:__ZN19Il2CppMetadataCacheC2Ev
1239:__ZN13Il2CppHashSetIPK19Il2CppGenericMethodN6il2cpp8metadata23Il2CppGenericMethodHashENS4_26Il2CppGenericMethodCompareENSt3__29allocatorI10KeyWrapperIS2_EEEEC2EmRKS5_RKS6_
1240:__ZN14dense_hash_setI10KeyWrapperIPK19Il2CppGenericMethodEN6il2cpp8metadata23Il2CppGenericMethodHashENS4_14EqualsComparerINS6_26Il2CppGenericMethodCompareEEENSt3__29allocatorIS4_EEE15set_deleted_keyERKS4_
1241:__ZN15dense_hashtableI10KeyWrapperIPK19Il2CppGenericMethodES4_N6il2cpp8metadata23Il2CppGenericMethodHashEN14dense_hash_setIS4_S7_NS4_14EqualsComparerINS6_26Il2CppGenericMethodCompareEEENSt3__29allocatorIS4_EEE8IdentityESB_SE_E14squash_deletedEv
1242:__ZN6il2cpp5utils8OnceFlagC2Ev
1243:__ZN13Il2CppHashMapIPK39___Il2CppMetadataGenericParameterHandleP11Il2CppClassN6il2cpp5utils15PassThroughHashIS2_EENSt3__28equal_toIS2_EENS9_9allocatorINS9_4pairIK10KeyWrapperIS2_ES4_EEEEEC2EmRKS8_RKSB_
1244:__ZN14dense_hash_mapI10KeyWrapperIPK39___Il2CppMetadataGenericParameterHandleEP11Il2CppClassN6il2cpp5utils15PassThroughHashIS3_EENS4_14EqualsComparerINSt3__28equal_toIS3_EEEENSC_9allocatorINSC_4pairIKS4_S6_EEEEE13set_empty_keyERSI_
1245:__ZN14dense_hash_mapI10KeyWrapperIPK39___Il2CppMetadataGenericParameterHandleEP11Il2CppClassN6il2cpp5utils15PassThroughHashIS3_EENS4_14EqualsComparerINSt3__28equal_toIS3_EEEENSC_9allocatorINSC_4pairIKS4_S6_EEEEE15set_deleted_keyERSI_
1246:__ZN15dense_hashtableINSt3__24pairIK10KeyWrapperIPK39___Il2CppMetadataGenericParameterHandleEP11Il2CppClassEES6_N6il2cpp5utils15PassThroughHashIS5_EEN14dense_hash_mapIS6_S9_SE_NS6_14EqualsComparerINS0_8equal_toIS5_EEEENS0_9allocatorISA_EEE9SelectKeyESJ_SL_E14squash_deletedEv
1247:__ZN15dense_hashtableINSt3__24pairIK10KeyWrapperIPK39___Il2CppMetadataGenericParameterHandleEP11Il2CppClassEES6_N6il2cpp5utils15PassThroughHashIS5_EEN14dense_hash_mapIS6_S9_SE_NS6_14EqualsComparerINS0_8equal_toIS5_EEEENS0_9allocatorISA_EEE9SelectKeyESJ_SL_E13set_empty_keyERKSA_
1248:__GLOBAL__sub_I_Lump_libil2cpp_metadata_cpp
1249:___cxx_global_var_init_1_47221
1250:___cxx_global_var_init_2_47222
1251:___cxx_global_var_init_4_47224
1252:___cxx_global_var_init_5
1253:__ZN13Il2CppHashMapIPK19Il2CppGenericMethodP10MethodInfoN6il2cpp8metadata23Il2CppGenericMethodHashENS6_26Il2CppGenericMethodCompareENSt3__29allocatorINS9_4pairIK10KeyWrapperIS2_ES4_EEEEEC2EmRKS7_RKS8_
1254:__ZN14dense_hash_mapI10KeyWrapperIPK19Il2CppGenericMethodEP10MethodInfoN6il2cpp8metadata23Il2CppGenericMethodHashENS4_14EqualsComparerINS8_26Il2CppGenericMethodCompareEEENSt3__29allocatorINSD_4pairIKS4_S6_EEEEE13set_empty_keyERSG_
1255:__ZN14dense_hash_mapI10KeyWrapperIPK19Il2CppGenericMethodEP10MethodInfoN6il2cpp8metadata23Il2CppGenericMethodHashENS4_14EqualsComparerINS8_26Il2CppGenericMethodCompareEEENSt3__29allocatorINSD_4pairIKS4_S6_EEEEE15set_deleted_keyERSG_
1256:__ZN15dense_hashtableINSt3__24pairIK10KeyWrapperIPK19Il2CppGenericMethodEP10MethodInfoEES6_N6il2cpp8metadata23Il2CppGenericMethodHashEN14dense_hash_mapIS6_S9_SD_NS6_14EqualsComparerINSC_26Il2CppGenericMethodCompareEEENS0_9allocatorISA_EEE9SelectKeyESH_SJ_E14squash_deletedEv
1257:__ZN15dense_hashtableINSt3__24pairIK10KeyWrapperIPK19Il2CppGenericMethodEP10MethodInfoEES6_N6il2cpp8metadata23Il2CppGenericMethodHashEN14dense_hash_mapIS6_S9_SD_NS6_14EqualsComparerINSC_26Il2CppGenericMethodCompareEEENS0_9allocatorISA_EEE9SelectKeyESH_SJ_EC2ERKSM_m
1258:__ZN15dense_hashtableINSt3__24pairIK10KeyWrapperIPK19Il2CppGenericMethodEP10MethodInfoEES6_N6il2cpp8metadata23Il2CppGenericMethodHashEN14dense_hash_mapIS6_S9_SD_NS6_14EqualsComparerINSC_26Il2CppGenericMethodCompareEEENS0_9allocatorISA_EEE9SelectKeyESH_SJ_E9copy_fromERKSM_m
1259:__ZN15dense_hashtableINSt3__24pairIK10KeyWrapperIPK19Il2CppGenericMethodEP10MethodInfoEES6_N6il2cpp8metadata23Il2CppGenericMethodHashEN14dense_hash_mapIS6_S9_SD_NS6_14EqualsComparerINSC_26Il2CppGenericMethodCompareEEENS0_9allocatorISA_EEE9SelectKeyESH_SJ_E5clearEv
1260:__ZN15dense_hashtableINSt3__24pairIK10KeyWrapperIPK19Il2CppGenericMethodEP10MethodInfoEES6_N6il2cpp8metadata23Il2CppGenericMethodHashEN14dense_hash_mapIS6_S9_SD_NS6_14EqualsComparerINSC_26Il2CppGenericMethodCompareEEENS0_9allocatorISA_EEE9SelectKeyESH_SJ_E12expand_arrayEmN21dense_hash_map_traits17integral_constantIbLb0EEE
1261:__ZN6il2cpp8metadata23Il2CppGenericMethodHash4HashEPK19Il2CppGenericMethod
1262:__ZN6il2cpp8metadata24Il2CppGenericContextHash4HashEPK20Il2CppGenericContext
1263:__ZN6il2cpp8metadata21Il2CppGenericInstHash4HashEPK17Il2CppGenericInst
1264:__ZN6il2cpp8metadata14Il2CppTypeHash4HashEPK10Il2CppType
1265:__ZNSt3__218uninitialized_copyIPNS_4pairIK10KeyWrapperIPK19Il2CppGenericMethodEP10MethodInfoEESB_EET0_T_SD_SC_
1266:__ZN15dense_hashtableINSt3__24pairIK10KeyWrapperIPK19Il2CppGenericMethodEP10MethodInfoEES6_N6il2cpp8metadata23Il2CppGenericMethodHashEN14dense_hash_mapIS6_S9_SD_NS6_14EqualsComparerINSC_26Il2CppGenericMethodCompareEEENS0_9allocatorISA_EEE9SelectKeyESH_SJ_E21fill_range_with_emptyEPSA_SN_
1267:__ZNSt3__218uninitialized_fillIPNS_4pairIK10KeyWrapperIPK19Il2CppGenericMethodEP10MethodInfoEESA_EEvT_SC_RKT0_
1268:__ZN15dense_hashtableINSt3__24pairIK10KeyWrapperIPK19Il2CppGenericMethodEP10MethodInfoEES6_N6il2cpp8metadata23Il2CppGenericMethodHashEN14dense_hash_mapIS6_S9_SD_NS6_14EqualsComparerINSC_26Il2CppGenericMethodCompareEEENS0_9allocatorISA_EEE9SelectKeyESH_SJ_E13set_empty_keyERKSA_
1269:__ZN13Il2CppHashSetIP18Il2CppGenericClassN6il2cpp8metadata22Il2CppGenericClassHashENS3_25Il2CppGenericClassCompareENSt3__29allocatorI10KeyWrapperIS1_EEEEC2EmRKS4_RKS5_
1270:__ZN14dense_hash_setI10KeyWrapperIP18Il2CppGenericClassEN6il2cpp8metadata22Il2CppGenericClassHashENS3_14EqualsComparerINS5_25Il2CppGenericClassCompareEEENSt3__29allocatorIS3_EEE15set_deleted_keyERKS3_
1271:__ZN15dense_hashtableI10KeyWrapperIP18Il2CppGenericClassES3_N6il2cpp8metadata22Il2CppGenericClassHashEN14dense_hash_setIS3_S6_NS3_14EqualsComparerINS5_25Il2CppGenericClassCompareEEENSt3__29allocatorIS3_EEE8IdentityESA_SD_E14squash_deletedEv
1272:__ZN15dense_hashtableI10KeyWrapperIP18Il2CppGenericClassES3_N6il2cpp8metadata22Il2CppGenericClassHashEN14dense_hash_setIS3_S6_NS3_14EqualsComparerINS5_25Il2CppGenericClassCompareEEENSt3__29allocatorIS3_EEE8IdentityESA_SD_EC2ERKSG_m
1273:__ZN15dense_hashtableI10KeyWrapperIP18Il2CppGenericClassES3_N6il2cpp8metadata22Il2CppGenericClassHashEN14dense_hash_setIS3_S6_NS3_14EqualsComparerINS5_25Il2CppGenericClassCompareEEENSt3__29allocatorIS3_EEE8IdentityESA_SD_E9copy_fromERKSG_m
1274:__ZN30dense_hashtable_const_iteratorI10KeyWrapperIP18Il2CppGenericClassES3_N6il2cpp8metadata22Il2CppGenericClassHashEN14dense_hash_setIS3_S6_NS3_14EqualsComparerINS5_25Il2CppGenericClassCompareEEENSt3__29allocatorIS3_EEE8IdentityESA_SD_E30advance_past_empty_and_deletedEv
1275:__ZNK15dense_hashtableI10KeyWrapperIP18Il2CppGenericClassES3_N6il2cpp8metadata22Il2CppGenericClassHashEN14dense_hash_setIS3_S6_NS3_14EqualsComparerINS5_25Il2CppGenericClassCompareEEENSt3__29allocatorIS3_EEE8IdentityESA_SD_E12test_deletedERK30dense_hashtable_const_iteratorIS3_S3_S6_SF_SA_SD_E
1276:__ZNK10KeyWrapperIP18Il2CppGenericClassE14EqualsComparerIN6il2cpp8metadata25Il2CppGenericClassCompareEEclERKS2_S9_
1277:__ZN6il2cpp8metadata25Il2CppGenericClassCompare7CompareEPK18Il2CppGenericClassS4_
1278:__ZN6il2cpp8metadata26Il2CppTypeEqualityComparer8AreEqualEPK10Il2CppTypeS4_
1279:__ZN6il2cpp8metadata24Il2CppGenericInstCompare7CompareERK10KeyWrapperIPK17Il2CppGenericInstES8_
1280:__ZN6il2cpp8metadataL7CompareEPK10Il2CppTypeS3_
1281:__ZN6il2cpp8metadataL7CompareIhEEiRKT_S4_
1282:__ZN30dense_hashtable_const_iteratorI10KeyWrapperIP18Il2CppGenericClassES3_N6il2cpp8metadata22Il2CppGenericClassHashEN14dense_hash_setIS3_S6_NS3_14EqualsComparerINS5_25Il2CppGenericClassCompareEEENSt3__29allocatorIS3_EEE8IdentityESA_SD_EC2EPK15dense_hashtableIS3_S3_S6_SF_SA_SD_EPKS3_SM_b
1283:__ZN13Il2CppHashMapINSt3__24pairIP11Il2CppClassjEES3_N6il2cpp8metadata14ArrayClassHashENS6_17ArrayClassCompareENS0_9allocatorINS1_IK10KeyWrapperIS4_ES3_EEEEEC2EmRKS7_RKS8_
1284:__ZN15dense_hashtableINSt3__24pairIK10KeyWrapperINS1_IP11Il2CppClassjEEES4_EES6_N6il2cpp8metadata14ArrayClassHashEN14dense_hash_mapIS6_S4_SB_NS6_14EqualsComparerINSA_17ArrayClassCompareEEENS0_9allocatorIS8_EEE9SelectKeyESF_SH_ED2Ev
1285:__ZN10KeyWrapperINSt3__24pairIP11Il2CppClassjEEEC2ENS5_11KeyTypeEnumE
1286:__ZN14dense_hash_mapI10KeyWrapperINSt3__24pairIP11Il2CppClassjEEES4_N6il2cpp8metadata14ArrayClassHashENS6_14EqualsComparerINS8_17ArrayClassCompareEEENS1_9allocatorINS2_IKS6_S4_EEEEE13set_empty_keyERSE_
1287:__ZN14dense_hash_mapI10KeyWrapperINSt3__24pairIP11Il2CppClassjEEES4_N6il2cpp8metadata14ArrayClassHashENS6_14EqualsComparerINS8_17ArrayClassCompareEEENS1_9allocatorINS2_IKS6_S4_EEEEE15set_deleted_keyERSE_
1288:__ZN15dense_hashtableINSt3__24pairIK10KeyWrapperINS1_IP11Il2CppClassjEEES4_EES6_N6il2cpp8metadata14ArrayClassHashEN14dense_hash_mapIS6_S4_SB_NS6_14EqualsComparerINSA_17ArrayClassCompareEEENS0_9allocatorIS8_EEE9SelectKeyESF_SH_E14squash_deletedEv
1289:__ZNSt3__24pairIK10KeyWrapperINS0_IP11Il2CppClassjEEES3_EC2ERKS7_
1290:__ZN15dense_hashtableINSt3__24pairIK10KeyWrapperINS1_IP11Il2CppClassjEEES4_EES6_N6il2cpp8metadata14ArrayClassHashEN14dense_hash_mapIS6_S4_SB_NS6_14EqualsComparerINSA_17ArrayClassCompareEEENS0_9allocatorIS8_EEE9SelectKeyESF_SH_EC2ERKSK_m
1291:__ZN15dense_hashtableINSt3__24pairIK10KeyWrapperINS1_IP11Il2CppClassjEEES4_EES6_N6il2cpp8metadata14ArrayClassHashEN14dense_hash_mapIS6_S4_SB_NS6_14EqualsComparerINSA_17ArrayClassCompareEEENS0_9allocatorIS8_EEE9SelectKeyESF_SH_E4swapERSK_
1292:__ZN15dense_hashtableINSt3__24pairIK10KeyWrapperINS1_IP11Il2CppClassjEEES4_EES6_N6il2cpp8metadata14ArrayClassHashEN14dense_hash_mapIS6_S4_SB_NS6_14EqualsComparerINSA_17ArrayClassCompareEEENS0_9allocatorIS8_EEE9SelectKeyESF_SH_E16reset_thresholdsEv
1293:__ZN15dense_hashtableINSt3__24pairIK10KeyWrapperINS1_IP11Il2CppClassjEEES4_EES6_N6il2cpp8metadata14ArrayClassHashEN14dense_hash_mapIS6_S4_SB_NS6_14EqualsComparerINSA_17ArrayClassCompareEEENS0_9allocatorIS8_EEE9SelectKeyESF_SH_E9copy_fromERKSK_m
1294:__ZN15dense_hashtableINSt3__24pairIK10KeyWrapperINS1_IP11Il2CppClassjEEES4_EES6_N6il2cpp8metadata14ArrayClassHashEN14dense_hash_mapIS6_S4_SB_NS6_14EqualsComparerINSA_17ArrayClassCompareEEENS0_9allocatorIS8_EEE9SelectKeyESF_SH_E5clearEv
1295:__ZN15dense_hashtableINSt3__24pairIK10KeyWrapperINS1_IP11Il2CppClassjEEES4_EES6_N6il2cpp8metadata14ArrayClassHashEN14dense_hash_mapIS6_S4_SB_NS6_14EqualsComparerINSA_17ArrayClassCompareEEENS0_9allocatorIS8_EEE9SelectKeyESF_SH_E12expand_arrayEmN21dense_hash_map_traits17integral_constantIbLb0EEE
1296:__ZN30dense_hashtable_const_iteratorINSt3__24pairIK10KeyWrapperINS1_IP11Il2CppClassjEEES4_EES6_N6il2cpp8metadata14ArrayClassHashEN14dense_hash_mapIS6_S4_SB_NS6_14EqualsComparerINSA_17ArrayClassCompareEEENS0_9allocatorIS8_EEE9SelectKeyESF_SH_E30advance_past_empty_and_deletedEv
1297:__ZNK15dense_hashtableINSt3__24pairIK10KeyWrapperINS1_IP11Il2CppClassjEEES4_EES6_N6il2cpp8metadata14ArrayClassHashEN14dense_hash_mapIS6_S4_SB_NS6_14EqualsComparerINSA_17ArrayClassCompareEEENS0_9allocatorIS8_EEE9SelectKeyESF_SH_E12test_deletedERK30dense_hashtable_const_iteratorIS8_S6_SB_SJ_SF_SH_E
1298:__ZNK10KeyWrapperINSt3__24pairIP11Il2CppClassjEEE14EqualsComparerIN6il2cpp8metadata17ArrayClassCompareEEclERKS5_SC_
1299:__ZNK6il2cpp8metadata17ArrayClassCompareclERKNSt3__24pairIP11Il2CppClassjEES8_
1300:__ZN30dense_hashtable_const_iteratorINSt3__24pairIK10KeyWrapperINS1_IP11Il2CppClassjEEES4_EES6_N6il2cpp8metadata14ArrayClassHashEN14dense_hash_mapIS6_S4_SB_NS6_14EqualsComparerINSA_17ArrayClassCompareEEENS0_9allocatorIS8_EEE9SelectKeyESF_SH_EC2EPK15dense_hashtableIS8_S6_SB_SJ_SF_SH_EPKS8_SQ_b
1301:__ZNSt3__218uninitialized_copyIPNS_4pairIK10KeyWrapperINS1_IP11Il2CppClassjEEES4_EES9_EET0_T_SB_SA_
1302:__ZN15dense_hashtableINSt3__24pairIK10KeyWrapperINS1_IP11Il2CppClassjEEES4_EES6_N6il2cpp8metadata14ArrayClassHashEN14dense_hash_mapIS6_S4_SB_NS6_14EqualsComparerINSA_17ArrayClassCompareEEENS0_9allocatorIS8_EEE9SelectKeyESF_SH_E21fill_range_with_emptyEPS8_SL_
1303:__ZNSt3__218uninitialized_fillIPNS_4pairIK10KeyWrapperINS1_IP11Il2CppClassjEEES4_EES8_EEvT_SA_RKT0_
1304:__ZN15dense_hashtableINSt3__24pairIK10KeyWrapperINS1_IP11Il2CppClassjEEES4_EES6_N6il2cpp8metadata14ArrayClassHashEN14dense_hash_mapIS6_S4_SB_NS6_14EqualsComparerINSA_17ArrayClassCompareEEENS0_9allocatorIS8_EEE9SelectKeyESF_SH_E13set_empty_keyERKS8_
1305:__ZN15dense_hashtableINSt3__24pairIK10KeyWrapperINS1_IP11Il2CppClassjEEES4_EES6_N6il2cpp8metadata14ArrayClassHashEN14dense_hash_mapIS6_S4_SB_NS6_14EqualsComparerINSA_17ArrayClassCompareEEENS0_9allocatorIS8_EEE9SelectKeyESF_SH_EC2EmRKSB_RKSF_RKSJ_
1306:__ZN13Il2CppHashMapIP11Il2CppClassS1_N6il2cpp8metadata16SZArrayClassHashENS3_19SZArrayClassCompareENSt3__29allocatorINS6_4pairIK10KeyWrapperIS1_ES1_EEEEEC2EmRKS4_RKS5_
1307:__ZN14dense_hash_mapI10KeyWrapperIP11Il2CppClassES2_N6il2cpp8metadata16SZArrayClassHashENS3_14EqualsComparerINS5_19SZArrayClassCompareEEENSt3__29allocatorINSA_4pairIKS3_S2_EEEEE13set_empty_keyERSD_
1308:__ZN14dense_hash_mapI10KeyWrapperIP11Il2CppClassES2_N6il2cpp8metadata16SZArrayClassHashENS3_14EqualsComparerINS5_19SZArrayClassCompareEEENSt3__29allocatorINSA_4pairIKS3_S2_EEEEE15set_deleted_keyERSD_
1309:__ZN15dense_hashtableINSt3__24pairIK10KeyWrapperIP11Il2CppClassES4_EES5_N6il2cpp8metadata16SZArrayClassHashEN14dense_hash_mapIS5_S4_SA_NS5_14EqualsComparerINS9_19SZArrayClassCompareEEENS0_9allocatorIS7_EEE9SelectKeyESE_SG_E14squash_deletedEv
1310:__ZN15dense_hashtableINSt3__24pairIK10KeyWrapperIP11Il2CppClassES4_EES5_N6il2cpp8metadata16SZArrayClassHashEN14dense_hash_mapIS5_S4_SA_NS5_14EqualsComparerINS9_19SZArrayClassCompareEEENS0_9allocatorIS7_EEE9SelectKeyESE_SG_EC2ERKSJ_m
1311:__ZN15dense_hashtableINSt3__24pairIK10KeyWrapperIP11Il2CppClassES4_EES5_N6il2cpp8metadata16SZArrayClassHashEN14dense_hash_mapIS5_S4_SA_NS5_14EqualsComparerINS9_19SZArrayClassCompareEEENS0_9allocatorIS7_EEE9SelectKeyESE_SG_E9copy_fromERKSJ_m
1312:__ZN15dense_hashtableINSt3__24pairIK10KeyWrapperIP11Il2CppClassES4_EES5_N6il2cpp8metadata16SZArrayClassHashEN14dense_hash_mapIS5_S4_SA_NS5_14EqualsComparerINS9_19SZArrayClassCompareEEENS0_9allocatorIS7_EEE9SelectKeyESE_SG_E5clearEv
1313:__ZN15dense_hashtableINSt3__24pairIK10KeyWrapperIP11Il2CppClassES4_EES5_N6il2cpp8metadata16SZArrayClassHashEN14dense_hash_mapIS5_S4_SA_NS5_14EqualsComparerINS9_19SZArrayClassCompareEEENS0_9allocatorIS7_EEE9SelectKeyESE_SG_E12expand_arrayEmN21dense_hash_map_traits17integral_constantIbLb0EEE
1314:__ZN30dense_hashtable_const_iteratorINSt3__24pairIK10KeyWrapperIP11Il2CppClassES4_EES5_N6il2cpp8metadata16SZArrayClassHashEN14dense_hash_mapIS5_S4_SA_NS5_14EqualsComparerINS9_19SZArrayClassCompareEEENS0_9allocatorIS7_EEE9SelectKeyESE_SG_E30advance_past_empty_and_deletedEv
1315:__ZNK15dense_hashtableINSt3__24pairIK10KeyWrapperIP11Il2CppClassES4_EES5_N6il2cpp8metadata16SZArrayClassHashEN14dense_hash_mapIS5_S4_SA_NS5_14EqualsComparerINS9_19SZArrayClassCompareEEENS0_9allocatorIS7_EEE9SelectKeyESE_SG_E12test_deletedERK30dense_hashtable_const_iteratorIS7_S5_SA_SI_SE_SG_E
1316:__ZNK10KeyWrapperIP11Il2CppClassE14EqualsComparerIN6il2cpp8metadata19SZArrayClassCompareEEclERKS2_S9_
1317:__ZN30dense_hashtable_const_iteratorINSt3__24pairIK10KeyWrapperIP11Il2CppClassES4_EES5_N6il2cpp8metadata16SZArrayClassHashEN14dense_hash_mapIS5_S4_SA_NS5_14EqualsComparerINS9_19SZArrayClassCompareEEENS0_9allocatorIS7_EEE9SelectKeyESE_SG_EC2EPK15dense_hashtableIS7_S5_SA_SI_SE_SG_EPKS7_SP_b
1318:__ZNSt3__218uninitialized_copyIPNS_4pairIK10KeyWrapperIP11Il2CppClassES4_EES8_EET0_T_SA_S9_
1319:__ZN15dense_hashtableINSt3__24pairIK10KeyWrapperIP11Il2CppClassES4_EES5_N6il2cpp8metadata16SZArrayClassHashEN14dense_hash_mapIS5_S4_SA_NS5_14EqualsComparerINS9_19SZArrayClassCompareEEENS0_9allocatorIS7_EEE9SelectKeyESE_SG_E21fill_range_with_emptyEPS7_SK_
1320:__ZNSt3__218uninitialized_fillIPNS_4pairIK10KeyWrapperIP11Il2CppClassES4_EES7_EEvT_S9_RKT0_
1321:__ZN15dense_hashtableINSt3__24pairIK10KeyWrapperIP11Il2CppClassES4_EES5_N6il2cpp8metadata16SZArrayClassHashEN14dense_hash_mapIS5_S4_SA_NS5_14EqualsComparerINS9_19SZArrayClassCompareEEENS0_9allocatorIS7_EEE9SelectKeyESE_SG_E13set_empty_keyERKS7_
1322:__ZN6il2cpp8metadata27Il2CppGenericContextCompare7CompareEPK20Il2CppGenericContextS4_
1323:__GLOBAL__sub_I_Lump_libil2cpp_utils_cpp
1324:___cxx_global_var_init_10
1325:___cxx_global_var_init_11
1326:__GLOBAL__sub_I_Lump_libil2cpp_vm_utils_cpp
1327:__GLOBAL__sub_I_Lump_libil2cpp_mono_cpp
1328:__GLOBAL__sub_I_Lump_libil2cpp_gc_cpp
1329:___cxx_global_var_init_47546
1330:___cxx_global_var_init_5_47549
1331:__ZN13Il2CppHashMapIP12Il2CppObjectN6il2cpp2gc9CachedCCWENS2_5utils11PointerHashIS0_EENSt3__28equal_toIS1_EENS8_9allocatorINS8_4pairIK10KeyWrapperIS1_ES4_EEEEEC2EmRKS7_RKSA_
1332:__ZN14dense_hash_mapI10KeyWrapperIP12Il2CppObjectEN6il2cpp2gc9CachedCCWENS4_5utils11PointerHashIS1_EENS3_14EqualsComparerINSt3__28equal_toIS2_EEEENSB_9allocatorINSB_4pairIKS3_S6_EEEEE13set_empty_keyERSH_
1333:__ZN14dense_hash_mapI10KeyWrapperIP12Il2CppObjectEN6il2cpp2gc9CachedCCWENS4_5utils11PointerHashIS1_EENS3_14EqualsComparerINSt3__28equal_toIS2_EEEENSB_9allocatorINSB_4pairIKS3_S6_EEEEE15set_deleted_keyERSH_
1334:__ZN15dense_hashtableINSt3__24pairIK10KeyWrapperIP12Il2CppObjectEN6il2cpp2gc9CachedCCWEEES5_NS7_5utils11PointerHashIS3_EEN14dense_hash_mapIS5_S9_SD_NS5_14EqualsComparerINS0_8equal_toIS4_EEEENS0_9allocatorISA_EEE9SelectKeyESI_SK_E14squash_deletedEv
1335:__ZNSt3__24pairIK10KeyWrapperIP12Il2CppObjectEN6il2cpp2gc9CachedCCWEEC2ERKS9_
1336:__ZN15dense_hashtableINSt3__24pairIK10KeyWrapperIP12Il2CppObjectEN6il2cpp2gc9CachedCCWEEES5_NS7_5utils11PointerHashIS3_EEN14dense_hash_mapIS5_S9_SD_NS5_14EqualsComparerINS0_8equal_toIS4_EEEENS0_9allocatorISA_EEE9SelectKeyESI_SK_EC2ERKSN_m
1337:__ZN15dense_hashtableINSt3__24pairIK10KeyWrapperIP12Il2CppObjectEN6il2cpp2gc9CachedCCWEEES5_NS7_5utils11PointerHashIS3_EEN14dense_hash_mapIS5_S9_SD_NS5_14EqualsComparerINS0_8equal_toIS4_EEEENS0_9allocatorISA_EEE9SelectKeyESI_SK_E4swapERSN_
1338:__ZN15dense_hashtableINSt3__24pairIK10KeyWrapperIP12Il2CppObjectEN6il2cpp2gc9CachedCCWEEES5_NS7_5utils11PointerHashIS3_EEN14dense_hash_mapIS5_S9_SD_NS5_14EqualsComparerINS0_8equal_toIS4_EEEENS0_9allocatorISA_EEE9SelectKeyESI_SK_E9copy_fromERKSN_m
1339:__ZN15dense_hashtableINSt3__24pairIK10KeyWrapperIP12Il2CppObjectEN6il2cpp2gc9CachedCCWEEES5_NS7_5utils11PointerHashIS3_EEN14dense_hash_mapIS5_S9_SD_NS5_14EqualsComparerINS0_8equal_toIS4_EEEENS0_9allocatorISA_EEE9SelectKeyESI_SK_E5clearEv
1340:__ZN15dense_hashtableINSt3__24pairIK10KeyWrapperIP12Il2CppObjectEN6il2cpp2gc9CachedCCWEEES5_NS7_5utils11PointerHashIS3_EEN14dense_hash_mapIS5_S9_SD_NS5_14EqualsComparerINS0_8equal_toIS4_EEEENS0_9allocatorISA_EEE9SelectKeyESI_SK_E12expand_arrayEmN21dense_hash_map_traits17integral_constantIbLb0EEE
1341:__ZN30dense_hashtable_const_iteratorINSt3__24pairIK10KeyWrapperIP12Il2CppObjectEN6il2cpp2gc9CachedCCWEEES5_NS7_5utils11PointerHashIS3_EEN14dense_hash_mapIS5_S9_SD_NS5_14EqualsComparerINS0_8equal_toIS4_EEEENS0_9allocatorISA_EEE9SelectKeyESI_SK_E30advance_past_empty_and_deletedEv
1342:__ZN30dense_hashtable_const_iteratorINSt3__24pairIK10KeyWrapperIP12Il2CppObjectEN6il2cpp2gc9CachedCCWEEES5_NS7_5utils11PointerHashIS3_EEN14dense_hash_mapIS5_S9_SD_NS5_14EqualsComparerINS0_8equal_toIS4_EEEENS0_9allocatorISA_EEE9SelectKeyESI_SK_EC2EPK15dense_hashtableISA_S5_SD_SM_SI_SK_EPKSA_ST_b
1343:__ZNSt3__218uninitialized_copyIPNS_4pairIK10KeyWrapperIP12Il2CppObjectEN6il2cpp2gc9CachedCCWEEESB_EET0_T_SD_SC_
1344:__ZN15dense_hashtableINSt3__24pairIK10KeyWrapperIP12Il2CppObjectEN6il2cpp2gc9CachedCCWEEES5_NS7_5utils11PointerHashIS3_EEN14dense_hash_mapIS5_S9_SD_NS5_14EqualsComparerINS0_8equal_toIS4_EEEENS0_9allocatorISA_EEE9SelectKeyESI_SK_E21fill_range_with_emptyEPSA_SO_
1345:__ZNSt3__218uninitialized_fillIPNS_4pairIK10KeyWrapperIP12Il2CppObjectEN6il2cpp2gc9CachedCCWEEESA_EEvT_SC_RKT0_
1346:__ZN15dense_hashtableINSt3__24pairIK10KeyWrapperIP12Il2CppObjectEN6il2cpp2gc9CachedCCWEEES5_NS7_5utils11PointerHashIS3_EEN14dense_hash_mapIS5_S9_SD_NS5_14EqualsComparerINS0_8equal_toIS4_EEEENS0_9allocatorISA_EEE9SelectKeyESI_SK_E13set_empty_keyERKSA_
1347:__ZN15dense_hashtableINSt3__24pairIK10KeyWrapperIP12Il2CppObjectEN6il2cpp2gc9CachedCCWEEES5_NS7_5utils11PointerHashIS3_EEN14dense_hash_mapIS5_S9_SD_NS5_14EqualsComparerINS0_8equal_toIS4_EEEENS0_9allocatorISA_EEE9SelectKeyESI_SK_EC2EmRKSD_RKSI_RKSM_
1348:__ZN13Il2CppHashMapIPcS0_N6il2cpp5utils15PassThroughHashIS0_EENSt3__28equal_toIS0_EENS5_9allocatorINS5_4pairIK10KeyWrapperIS0_ES0_EEEEEC2EmRKS4_RKS7_
1349:__ZN14dense_hash_mapI10KeyWrapperIPcES1_N6il2cpp5utils15PassThroughHashIS1_EENS2_14EqualsComparerINSt3__28equal_toIS1_EEEENS8_9allocatorINS8_4pairIKS2_S1_EEEEE13set_empty_keyERSE_
1350:__ZN14dense_hash_mapI10KeyWrapperIPcES1_N6il2cpp5utils15PassThroughHashIS1_EENS2_14EqualsComparerINSt3__28equal_toIS1_EEEENS8_9allocatorINS8_4pairIKS2_S1_EEEEE15set_deleted_keyERSE_
1351:__ZN15dense_hashtableINSt3__24pairIK10KeyWrapperIPcES3_EES4_N6il2cpp5utils15PassThroughHashIS3_EEN14dense_hash_mapIS4_S3_SA_NS4_14EqualsComparerINS0_8equal_toIS3_EEEENS0_9allocatorIS6_EEE9SelectKeyESF_SH_E14squash_deletedEv
1352:__ZN15dense_hashtableINSt3__24pairIK10KeyWrapperIPcES3_EES4_N6il2cpp5utils15PassThroughHashIS3_EEN14dense_hash_mapIS4_S3_SA_NS4_14EqualsComparerINS0_8equal_toIS3_EEEENS0_9allocatorIS6_EEE9SelectKeyESF_SH_EC2ERKSK_m
1353:__ZN15dense_hashtableINSt3__24pairIK10KeyWrapperIPcES3_EES4_N6il2cpp5utils15PassThroughHashIS3_EEN14dense_hash_mapIS4_S3_SA_NS4_14EqualsComparerINS0_8equal_toIS3_EEEENS0_9allocatorIS6_EEE9SelectKeyESF_SH_E9copy_fromERKSK_m
1354:__ZN15dense_hashtableINSt3__24pairIK10KeyWrapperIPcES3_EES4_N6il2cpp5utils15PassThroughHashIS3_EEN14dense_hash_mapIS4_S3_SA_NS4_14EqualsComparerINS0_8equal_toIS3_EEEENS0_9allocatorIS6_EEE9SelectKeyESF_SH_E5clearEv
1355:__ZN15dense_hashtableINSt3__24pairIK10KeyWrapperIPcES3_EES4_N6il2cpp5utils15PassThroughHashIS3_EEN14dense_hash_mapIS4_S3_SA_NS4_14EqualsComparerINS0_8equal_toIS3_EEEENS0_9allocatorIS6_EEE9SelectKeyESF_SH_E12expand_arrayEmN21dense_hash_map_traits17integral_constantIbLb0EEE
1356:__ZNSt3__218uninitialized_copyIPNS_4pairIK10KeyWrapperIPcES3_EES7_EET0_T_S9_S8_
1357:__ZN15dense_hashtableINSt3__24pairIK10KeyWrapperIPcES3_EES4_N6il2cpp5utils15PassThroughHashIS3_EEN14dense_hash_mapIS4_S3_SA_NS4_14EqualsComparerINS0_8equal_toIS3_EEEENS0_9allocatorIS6_EEE9SelectKeyESF_SH_E21fill_range_with_emptyEPS6_SL_
1358:__ZNSt3__218uninitialized_fillIPNS_4pairIK10KeyWrapperIPcES3_EES6_EEvT_S8_RKT0_
1359:__ZN15dense_hashtableINSt3__24pairIK10KeyWrapperIPcES3_EES4_N6il2cpp5utils15PassThroughHashIS3_EEN14dense_hash_mapIS4_S3_SA_NS4_14EqualsComparerINS0_8equal_toIS3_EEEENS0_9allocatorIS6_EEE9SelectKeyESF_SH_E13set_empty_keyERKS6_
1360:_malloc
1361:_free
1362:_realloc
1363:_try_realloc_chunk
1364:_dispose_chunk
1365:_memalign
1366:_internal_memalign
1367:___stdio_close
1368:___stdio_write
1369:___stdio_seek
1370:___errno_location
1371:___stdout_write
1372:_strcmp
1373:_memcmp
1374:_sprintf
1375:_vsnprintf
1376:_vfprintf
1377:_printf_core
1378:_out
1379:_getint
1380:_pop_arg
1381:_fmt_x
1382:_fmt_o
1383:_fmt_u
1384:_memchr
1385:_pad_680
1386:_wctomb
1387:_fmt_fp
1388:_frexp
1389:_wcrtomb
1390:___strerror_l
1391:___mo_lookup
1392:_swapc
1393:___fwritex
1394:___towrite
1395:_sn_write
1396:_strnlen
1397:_scalbn
1398:_strlen
1399:___cosdf
1400:___rem_pio2_large
1401:___rem_pio2f
1402:___sindf
1403:_scalbnf
1404:_fwrite
1405:___unlist_locked_file
1406:___overflow
1407:_fclose
1408:_fflush
1409:___fflush_unlocked
1410:_htons
1411:_htonl
1412:_fputc
1413:_cosf
1414:_expf
1415:___emscripten_environ_constructor
1416:__get_tzname
1417:__get_daylight
1418:__get_timezone
1419:__get_environ
1420:__ZNSt3__211char_traitsIcE4copyEPcPKcm
1421:__Znwm
1422:__ZNSt3__218__libcpp_refstringC2EPKc
1423:__ZNSt11logic_errorC2EPKc
1424:__ZNKSt3__221__basic_string_commonILb1EE20__throw_length_errorEv
1425:__ZNSt3__212basic_stringIcNS_11char_traitsIcEENS_9allocatorIcEEE6__initEPKcm
1426:__ZNSt3__212basic_stringIcNS_11char_traitsIcEENS_9allocatorIcEEED2Ev
1427:__ZNSt3__212basic_stringIcNS_11char_traitsIcEENS_9allocatorIcEEE7reserveEm
1428:__ZNKSt3__220__vector_base_commonILb1EE20__throw_length_errorEv
1429:__ZL25default_terminate_handlerv
1430:___cxa_get_globals_fast
1431:_abort_message
1432:__ZNK10__cxxabiv117__class_type_info9can_catchEPKNS_16__shim_type_infoERPv
1433:__ZNK10__cxxabiv117__class_type_info16search_above_dstEPNS_19__dynamic_cast_infoEPKvS4_ib
1434:__ZNK10__cxxabiv117__class_type_info16search_below_dstEPNS_19__dynamic_cast_infoEPKvib
1435:__ZNK10__cxxabiv117__class_type_info27has_unambiguous_public_baseEPNS_19__dynamic_cast_infoEPvi
1436:__ZNK10__cxxabiv117__class_type_info24process_found_base_classEPNS_19__dynamic_cast_infoEPvi
1437:__ZNK10__cxxabiv117__class_type_info29process_static_type_above_dstEPNS_19__dynamic_cast_infoEPKvS4_i
1438:___dynamic_cast
1439:__ZNK10__cxxabiv120__si_class_type_info16search_above_dstEPNS_19__dynamic_cast_infoEPKvS4_ib
1440:__ZNK10__cxxabiv120__si_class_type_info16search_below_dstEPNS_19__dynamic_cast_infoEPKvib
1441:__ZNK10__cxxabiv120__si_class_type_info27has_unambiguous_public_baseEPNS_19__dynamic_cast_infoEPvi
1442:__ZN10__cxxabiv112_GLOBAL__N_110construct_Ev
1443:__ZN10__cxxabiv112_GLOBAL__N_19destruct_EPv
1444:__ZSt9terminatev
1445:__ZSt11__terminatePFvvE
1446:__ZNKSt9bad_alloc4whatEv
1447:__ZNSt11logic_errorD2Ev
1448:__ZNSt11logic_errorD0Ev
1449:__ZNKSt11logic_error4whatEv
1450:__ZNSt3__218__libcpp_refstringD2Ev
1451:___cxa_can_catch
1452:___cxa_is_pointer_type
1453:runPostSets
1454:_llvm_bswap_i32
1455:_llvm_ctlz_i64
1456:_memcpy
1457:_memmove
1458:_memset
1459:_sbrk
1460:dynCall_i
1461:dynCall_ii
1462:dynCall_iii
1463:dynCall_iiii
1464:dynCall_iiiii
1465:dynCall_iiiiii
1466:dynCall_v
1467:dynCall_vi
1468:dynCall_vii
1469:dynCall_viii
1470:dynCall_viiii
1471:dynCall_viiiii
1472:dynCall_viiiiii
1473:b0
1474:b1
1475:b2
1476:b3
1477:b4
1478:b5
1479:b6
1480:b7
1481:b8
1482:b9
1483:b10
1484:b11
1485:b12
1486:b13
1487:b14
1488:b15
1489:b16
1490:b17
1491:b18
1492:legalstub$dynCall_iif
1493:legalstub$dynCall_iiiff
1494:legalstub$dynCall_iiij
1495:legalstub$dynCall_iiiji
1496:legalstub$dynCall_iij
1497:legalstub$dynCall_jiiii
